	.cpu cortex-m7
	.eabi_attribute 28, 1
	.eabi_attribute 20, 1
	.eabi_attribute 21, 1
	.eabi_attribute 23, 3
	.eabi_attribute 24, 1
	.eabi_attribute 25, 1
	.eabi_attribute 26, 1
	.eabi_attribute 30, 6
	.eabi_attribute 34, 1
	.eabi_attribute 18, 4
	.file	"interpreters.c"
	.text
.Ltext0:
	.section .rodata
	.align	2
.LC0:
	.ascii	"Usage: 'PeriClk <0|1> - dump only active or all per"
	.ascii	"iph. clk states\012\000"
	.align	2
.LC1:
	.ascii	"Usage: 'SleepClk <0|1> - dump only active or all pe"
	.ascii	"riph. clk states in LP mode\012\000"
	.align	2
.LC2:
	.ascii	"Usage: 'SetSysClk nn \012\000"
	.align	2
.LC3:
	.ascii	"Calibrating HSI clock\000"
	.align	2
.LC4:
	.ascii	"Usage:MCO output <n>, 0=Off, 1=HSI, 2=LSE, 3=HSE, 4"
	.ascii	"=PLL1Q, 5=HSI48\000"
	.align	2
.LC5:
	.ascii	"MCO Source %d\012\000"
	.align	2
.LC6:
	.ascii	"RFM_Menu: command not implemented\000"
	.section	.text.Config_Menu,"ax",%progbits
	.align	1
	.syntax unified
	.thumb
	.thumb_func
	.fpu fpv5-d16
	.type	Config_Menu, %function
Config_Menu:
.LFB332:
	.file 1 "E:\\GIT-Repos\\stm32-fw\\stm32h7\\h74_3_2\\CM7\\Src\\interpreters.c"
	.loc 1 97 1
	@ args = 0, pretend = 0, frame = 32
	@ frame_needed = 0, uses_anonymous_args = 0
	push	{lr}
.LCFI0:
	sub	sp, sp, #36
.LCFI1:
	str	r0, [sp, #12]
	str	r1, [sp, #8]
	str	r2, [sp, #4]
	.loc 1 104 11
	ldr	r3, [sp, #4]
	cmp	r3, #9
	bhi	.L2
	adr	r2, .L4
	ldr	pc, [r2, r3, lsl #2]
	.p2align 2
.L4:
	.word	.L13+1
	.word	.L12+1
	.word	.L11+1
	.word	.L10+1
	.word	.L9+1
	.word	.L8+1
	.word	.L7+1
	.word	.L6+1
	.word	.L5+1
	.word	.L3+1
	.p2align 1
.L13:
	.loc 1 106 7
	bl	DBG_dump_clocksetting
	.loc 1 107 7
	b	.L14
.L12:
	.loc 1 109 7
	bl	DBG_dump_rtcclockconfig
	.loc 1 110 7
	b	.L14
.L11:
	.loc 1 112 7
	bl	DBG_dump_powersetting
	.loc 1 113 7
	b	.L14
.L10:
	.loc 1 115 12
	bl	CMD_argc
	mov	r3, r0
	.loc 1 115 10
	cmp	r3, #0
	bne	.L15
	.loc 1 116 11
	ldr	r0, .L21
	bl	printf
	.loc 1 117 18
	movs	r3, #0
	b	.L20
.L15:
	.loc 1 119 7
	add	r2, sp, #20
	add	r3, sp, #24
	mov	r1, r2
	mov	r0, r3
	bl	CMD_get_one_word
	.loc 1 120 13
	ldr	r3, [sp, #24]
	ldr	r2, [sp, #20]
	mov	r1, r2
	mov	r0, r3
	bl	CMD_to_number
	str	r0, [sp, #28]
	.loc 1 121 7
	ldr	r3, [sp, #28]
	cmp	r3, #0
	ite	ne
	movne	r3, #1
	moveq	r3, #0
	uxtb	r3, r3
	mov	r0, r3
	bl	DBG_dump_peripheralclocksetting
	.loc 1 122 7
	b	.L14
.L9:
	.loc 1 124 7
	bl	DBG_dump_peripheralclockconfig
	.loc 1 125 7
	b	.L14
.L8:
	.loc 1 127 12
	bl	CMD_argc
	mov	r3, r0
	.loc 1 127 10
	cmp	r3, #0
	bne	.L17
	.loc 1 128 11
	ldr	r0, .L21+4
	bl	printf
	.loc 1 129 18
	movs	r3, #0
	b	.L20
.L17:
	.loc 1 131 7
	add	r2, sp, #20
	add	r3, sp, #24
	mov	r1, r2
	mov	r0, r3
	bl	CMD_get_one_word
	.loc 1 132 13
	ldr	r3, [sp, #24]
	ldr	r2, [sp, #20]
	mov	r1, r2
	mov	r0, r3
	bl	CMD_to_number
	str	r0, [sp, #28]
	.loc 1 133 7
	ldr	r3, [sp, #28]
	cmp	r3, #0
	ite	ne
	movne	r3, #1
	moveq	r3, #0
	uxtb	r3, r3
	mov	r0, r3
	bl	DBG_dump_peripheralclocksetting_insleepmode
	.loc 1 134 7
	b	.L14
.L7:
	.loc 1 136 7
	bl	DBG_dump_all_DMA
	.loc 1 137 7
	b	.L14
.L6:
	.loc 1 139 12
	bl	CMD_argc
	mov	r3, r0
	.loc 1 139 10
	cmp	r3, #0
	bne	.L18
	.loc 1 140 11
	ldr	r0, .L21+8
	bl	printf
	.loc 1 141 18
	movs	r3, #0
	b	.L20
.L18:
	.loc 1 143 7
	add	r2, sp, #20
	add	r3, sp, #24
	mov	r1, r2
	mov	r0, r3
	bl	CMD_get_one_word
	.loc 1 144 13
	ldr	r3, [sp, #24]
	ldr	r2, [sp, #20]
	mov	r1, r2
	mov	r0, r3
	bl	CMD_to_number
	str	r0, [sp, #28]
	.loc 1 145 7
	ldr	r3, [sp, #28]
	uxtb	r3, r3
	movs	r1, #1
	mov	r0, r3
	bl	SystemClock_Set
	.loc 1 146 7
	b	.L14
.L5:
	.loc 1 148 7
	ldr	r0, .L21+12
	bl	puts
	.loc 1 149 7
	bl	HSIClockCalibrate
	.loc 1 150 7
	b	.L14
.L3:
	.loc 1 152 12
	bl	CMD_argc
	mov	r3, r0
	.loc 1 152 10
	cmp	r3, #0
	bne	.L19
	.loc 1 153 11
	ldr	r0, .L21+16
	bl	printf
	.loc 1 154 18
	movs	r3, #0
	b	.L20
.L19:
	.loc 1 156 7
	add	r2, sp, #20
	add	r3, sp, #24
	mov	r1, r2
	mov	r0, r3
	bl	CMD_get_one_word
	.loc 1 157 13
	ldr	r3, [sp, #24]
	ldr	r2, [sp, #20]
	mov	r1, r2
	mov	r0, r3
	bl	CMD_to_number
	str	r0, [sp, #28]
	.loc 1 158 7
	ldr	r1, [sp, #28]
	ldr	r0, .L21+20
	bl	printf
	.loc 1 159 7
	ldr	r0, [sp, #28]
	bl	EnableMCO
	.loc 1 160 7
	b	.L14
.L2:
	.loc 1 162 7
	ldr	r0, .L21+24
	bl	puts
.L14:
	.loc 1 165 10
	movs	r3, #1
.L20:
	.loc 1 166 1 discriminator 1
	mov	r0, r3
	add	sp, sp, #36
.LCFI2:
	@ sp needed
	ldr	pc, [sp], #4
.L22:
	.align	2
.L21:
	.word	.LC0
	.word	.LC1
	.word	.LC2
	.word	.LC3
	.word	.LC4
	.word	.LC5
	.word	.LC6
.LFE332:
	.size	Config_Menu, .-Config_Menu
	.section .rodata
	.align	2
.LC7:
	.ascii	"Clock\000"
	.section	.text.pmtClkCfg,"ax",%progbits
	.align	1
	.syntax unified
	.thumb
	.thumb_func
	.fpu fpv5-d16
	.type	pmtClkCfg, %function
pmtClkCfg:
.LFB333:
	.loc 1 169 1
	@ args = 0, pretend = 0, frame = 0
	@ frame_needed = 0, uses_anonymous_args = 0
	@ link register save eliminated.
	.loc 1 170 10
	ldr	r3, .L25
	.loc 1 171 1
	mov	r0, r3
	bx	lr
.L26:
	.align	2
.L25:
	.word	.LC7
.LFE333:
	.size	pmtClkCfg, .-pmtClkCfg
	.section .rodata
	.align	2
.LC8:
	.ascii	"Show clocksettings\000"
	.align	2
.LC9:
	.ascii	"RTCClock\000"
	.align	2
.LC10:
	.ascii	"Show RTC clocksettings\000"
	.align	2
.LC11:
	.ascii	"Power\000"
	.align	2
.LC12:
	.ascii	"Show powersettings\000"
	.align	2
.LC13:
	.ascii	"PeriClk\000"
	.align	2
.LC14:
	.ascii	"Show peripheral clock settings\000"
	.align	2
.LC15:
	.ascii	"PeriCfg\000"
	.align	2
.LC16:
	.ascii	"Show peripheral clock configuration\000"
	.align	2
.LC17:
	.ascii	"SleepClk\000"
	.align	2
.LC18:
	.ascii	"Show peripheral clock settings in sleep mode\000"
	.align	2
.LC19:
	.ascii	"DMA settng\000"
	.align	2
.LC20:
	.ascii	"Show DAM settings\000"
	.align	2
.LC21:
	.ascii	"SetSysClk\000"
	.align	2
.LC22:
	.ascii	"Set system clock to predefined settings\000"
	.align	2
.LC23:
	.ascii	"Calib-HSI\000"
	.align	2
.LC24:
	.ascii	"Calibrate HSI Clock\000"
	.align	2
.LC25:
	.ascii	"MCO output\000"
	.align	2
.LC26:
	.ascii	"Activate MCO Output PA8\000"
	.section	.rodata.cmdClkCfg,"a"
	.align	2
	.type	cmdClkCfg, %object
	.size	cmdClkCfg, 200
cmdClkCfg:
	.word	.LC7
	.byte	0
	.space	3
	.word	Config_Menu
	.word	0
	.word	.LC8
	.word	.LC9
	.byte	0
	.space	3
	.word	Config_Menu
	.word	1
	.word	.LC10
	.word	.LC11
	.byte	0
	.space	3
	.word	Config_Menu
	.word	2
	.word	.LC12
	.word	.LC13
	.byte	0
	.space	3
	.word	Config_Menu
	.word	3
	.word	.LC14
	.word	.LC15
	.byte	0
	.space	3
	.word	Config_Menu
	.word	4
	.word	.LC16
	.word	.LC17
	.byte	0
	.space	3
	.word	Config_Menu
	.word	5
	.word	.LC18
	.word	.LC19
	.byte	0
	.space	3
	.word	Config_Menu
	.word	6
	.word	.LC20
	.word	.LC21
	.byte	0
	.space	3
	.word	Config_Menu
	.word	7
	.word	.LC22
	.word	.LC23
	.byte	0
	.space	3
	.word	Config_Menu
	.word	8
	.word	.LC24
	.word	.LC25
	.byte	0
	.space	3
	.word	Config_Menu
	.word	9
	.word	.LC26
	.global	mdlClkCfg
	.section	.rodata.mdlClkCfg,"a"
	.align	2
	.type	mdlClkCfg, %object
	.size	mdlClkCfg, 12
mdlClkCfg:
	.word	pmtClkCfg
	.word	cmdClkCfg
	.word	10
	.section .rodata
	.align	2
.LC27:
	.ascii	"Usage: Pin Init portletter portnum speed pupd outva"
	.ascii	"l\012\000"
	.align	2
.LC28:
	.ascii	"Usage: Pin DeInit portletter portnum1 [portnum2 [.."
	.ascii	".]]\012\000"
	.align	2
.LC29:
	.ascii	"Not implemented\000"
	.section	.text.Init_GPIO,"ax",%progbits
	.align	1
	.syntax unified
	.thumb
	.thumb_func
	.fpu fpv5-d16
	.type	Init_GPIO, %function
Init_GPIO:
.LFB334:
	.loc 1 196 1
	@ args = 0, pretend = 0, frame = 48
	@ frame_needed = 0, uses_anonymous_args = 0
	push	{lr}
.LCFI3:
	sub	sp, sp, #60
.LCFI4:
	str	r0, [sp, #20]
	str	r1, [sp, #16]
	str	r2, [sp, #12]
	.loc 1 202 12
	ldr	r3, [sp, #12]
	str	r3, [sp, #52]
	.loc 1 204 3
	ldr	r3, [sp, #52]
	cmp	r3, #2
	beq	.L39
	ldr	r3, [sp, #52]
	cmp	r3, #2
	bhi	.L29
	ldr	r3, [sp, #52]
	cmp	r3, #0
	beq	.L30
	ldr	r3, [sp, #52]
	cmp	r3, #1
	beq	.L31
	b	.L29
.L30:
	.loc 1 206 12
	bl	CMD_argc
	mov	r3, r0
	.loc 1 206 10
	cmp	r3, #4
	bhi	.L32
	.loc 1 207 9
	ldr	r0, .L40
	bl	printf
	.loc 1 208 16
	movs	r3, #0
	b	.L38
.L32:
	.loc 1 211 7
	add	r2, sp, #28
	add	r3, sp, #32
	mov	r1, r2
	mov	r0, r3
	bl	CMD_get_one_word
	.loc 1 212 20
	ldr	r3, [sp, #32]
	.loc 1 212 18
	ldrb	r3, [r3]
	strb	r3, [sp, #51]
	.loc 1 214 7
	add	r2, sp, #28
	add	r3, sp, #32
	mov	r1, r2
	mov	r0, r3
	bl	CMD_get_one_word
	.loc 1 215 17
	ldr	r3, [sp, #32]
	ldr	r2, [sp, #28]
	mov	r1, r2
	mov	r0, r3
	bl	CMD_to_number
	mov	r3, r0
	.loc 1 215 46
	uxtb	r3, r3
	.loc 1 215 15
	and	r3, r3, #15
	strb	r3, [sp, #50]
	.loc 1 216 7
	add	r2, sp, #28
	add	r3, sp, #32
	mov	r1, r2
	mov	r0, r3
	bl	CMD_get_one_word
	.loc 1 217 15
	ldr	r3, [sp, #32]
	ldr	r2, [sp, #28]
	mov	r1, r2
	mov	r0, r3
	bl	CMD_to_number
	mov	r3, r0
	.loc 1 217 13
	and	r3, r3, #3
	str	r3, [sp, #44]
	.loc 1 218 7
	add	r2, sp, #28
	add	r3, sp, #32
	mov	r1, r2
	mov	r0, r3
	bl	CMD_get_one_word
	.loc 1 219 14
	ldr	r3, [sp, #32]
	ldr	r2, [sp, #28]
	mov	r1, r2
	mov	r0, r3
	bl	CMD_to_number
	mov	r3, r0
	.loc 1 219 12
	and	r3, r3, #3
	str	r3, [sp, #40]
	.loc 1 220 7
	add	r2, sp, #28
	add	r3, sp, #32
	mov	r1, r2
	mov	r0, r3
	bl	CMD_get_one_word
	.loc 1 221 16
	ldr	r3, [sp, #32]
	ldr	r2, [sp, #28]
	mov	r1, r2
	mov	r0, r3
	bl	CMD_to_number
	mov	r3, r0
	.loc 1 221 14
	and	r3, r3, #1
	str	r3, [sp, #36]
	.loc 1 223 9
	ldrb	r1, [sp, #50]	@ zero_extendqisi2
	ldrb	r0, [sp, #51]	@ zero_extendqisi2
	ldr	r3, [sp, #36]
	str	r3, [sp]
	ldr	r3, [sp, #40]
	ldr	r2, [sp, #44]
	bl	DBG_init_pin
	.loc 1 224 9
	b	.L34
.L31:
	.loc 1 226 12
	bl	CMD_argc
	mov	r3, r0
	.loc 1 226 10
	cmp	r3, #1
	bhi	.L35
	.loc 1 227 9
	ldr	r0, .L40+4
	bl	printf
	.loc 1 228 16
	movs	r3, #0
	b	.L38
.L35:
	.loc 1 231 7
	add	r2, sp, #28
	add	r3, sp, #32
	mov	r1, r2
	mov	r0, r3
	bl	CMD_get_one_word
	.loc 1 232 20
	ldr	r3, [sp, #32]
	.loc 1 232 18
	ldrb	r3, [r3]
	strb	r3, [sp, #51]
	.loc 1 234 13
	b	.L36
.L37:
	.loc 1 235 21
	ldr	r3, [sp, #32]
	ldr	r2, [sp, #28]
	mov	r1, r2
	mov	r0, r3
	bl	CMD_to_number
	mov	r3, r0
	.loc 1 235 50
	uxtb	r3, r3
	.loc 1 235 19
	and	r3, r3, #15
	strb	r3, [sp, #50]
	.loc 1 236 11
	ldrb	r2, [sp, #50]	@ zero_extendqisi2
	ldrb	r3, [sp, #51]	@ zero_extendqisi2
	mov	r1, r2
	mov	r0, r3
	bl	DBG_deinit_pin
.L36:
	.loc 1 234 14
	add	r2, sp, #28
	add	r3, sp, #32
	mov	r1, r2
	mov	r0, r3
	bl	CMD_get_one_word
	mov	r3, r0
	.loc 1 234 13
	cmp	r3, #0
	bne	.L37
	.loc 1 238 7
	b	.L34
.L29:
	.loc 1 242 9
	ldr	r0, .L40+8
	bl	puts
	b	.L34
.L39:
	.loc 1 240 9
	nop
.L34:
	.loc 1 244 10
	movs	r3, #1
.L38:
	.loc 1 245 1 discriminator 1
	mov	r0, r3
	add	sp, sp, #60
.LCFI5:
	@ sp needed
	ldr	pc, [sp], #4
.L41:
	.align	2
.L40:
	.word	.LC27
	.word	.LC28
	.word	.LC29
.LFE334:
	.size	Init_GPIO, .-Init_GPIO
	.section .rodata
	.align	2
.LC30:
	.ascii	"Usage: Toggle portletter [portnum1 [portnum2[...]]\012"
	.ascii	"\000"
	.section	.text.Toggle_GPIO,"ax",%progbits
	.align	1
	.syntax unified
	.thumb
	.thumb_func
	.fpu fpv5-d16
	.type	Toggle_GPIO, %function
Toggle_GPIO:
.LFB335:
	.loc 1 255 1
	@ args = 0, pretend = 0, frame = 32
	@ frame_needed = 0, uses_anonymous_args = 0
	push	{lr}
.LCFI6:
	sub	sp, sp, #36
.LCFI7:
	str	r0, [sp, #12]
	str	r1, [sp, #8]
	str	r2, [sp, #4]
	.loc 1 262 8
	bl	CMD_argc
	mov	r3, r0
	.loc 1 262 6
	cmp	r3, #1
	bhi	.L43
	.loc 1 263 5
	ldr	r0, .L48
	bl	printf
	.loc 1 264 12
	movs	r3, #0
	b	.L47
.L43:
	.loc 1 267 3
	add	r2, sp, #20
	add	r3, sp, #24
	mov	r1, r2
	mov	r0, r3
	bl	CMD_get_one_word
	.loc 1 268 16
	ldr	r3, [sp, #24]
	.loc 1 268 14
	ldrb	r3, [r3]
	strb	r3, [sp, #31]
	.loc 1 270 9
	b	.L45
.L46:
	.loc 1 271 17
	ldr	r3, [sp, #24]
	ldr	r2, [sp, #20]
	mov	r1, r2
	mov	r0, r3
	bl	CMD_to_number
	mov	r3, r0
	.loc 1 271 46
	uxtb	r3, r3
	.loc 1 271 15
	and	r3, r3, #15
	strb	r3, [sp, #30]
	.loc 1 272 7
	ldr	r3, [sp, #4]
	cmp	r3, #1
	ite	eq
	moveq	r3, #1
	movne	r3, #0
	uxtb	r3, r3
	mov	r2, r3
	ldrb	r1, [sp, #30]	@ zero_extendqisi2
	ldrb	r3, [sp, #31]	@ zero_extendqisi2
	mov	r0, r3
	bl	DBG_dump_toggle_pin
.L45:
	.loc 1 270 10
	add	r2, sp, #20
	add	r3, sp, #24
	mov	r1, r2
	mov	r0, r3
	bl	CMD_get_one_word
	mov	r3, r0
	.loc 1 270 9
	cmp	r3, #0
	bne	.L46
	.loc 1 274 10
	movs	r3, #1
.L47:
	.loc 1 275 1 discriminator 1
	mov	r0, r3
	add	sp, sp, #36
.LCFI8:
	@ sp needed
	ldr	pc, [sp], #4
.L49:
	.align	2
.L48:
	.word	.LC30
.LFE335:
	.size	Toggle_GPIO, .-Toggle_GPIO
	.section .rodata
	.align	2
.LC31:
	.ascii	"Usage: GPIO letter [letter [...]]\012\000"
	.section	.text.Dump_GPIO,"ax",%progbits
	.align	1
	.syntax unified
	.thumb
	.thumb_func
	.fpu fpv5-d16
	.type	Dump_GPIO, %function
Dump_GPIO:
.LFB336:
	.loc 1 285 1
	@ args = 0, pretend = 0, frame = 32
	@ frame_needed = 0, uses_anonymous_args = 0
	push	{lr}
.LCFI9:
	sub	sp, sp, #36
.LCFI10:
	str	r0, [sp, #12]
	str	r1, [sp, #8]
	str	r2, [sp, #4]
	.loc 1 290 8
	bl	CMD_argc
	mov	r3, r0
	.loc 1 290 6
	cmp	r3, #0
	bne	.L53
	.loc 1 291 5
	ldr	r0, .L58
	bl	printf
	.loc 1 292 12
	movs	r3, #0
	b	.L57
.L56:
.LBB2:
	.loc 1 296 20
	movs	r3, #0
	str	r3, [sp, #28]
	.loc 1 296 5
	b	.L54
.L55:
	.loc 1 297 34 discriminator 3
	ldr	r2, [sp, #24]
	ldr	r3, [sp, #28]
	add	r3, r3, r2
	.loc 1 297 7 discriminator 3
	ldrb	r3, [r3]	@ zero_extendqisi2
	mov	r0, r3
	bl	DBG_dump_gpio_status
	.loc 1 296 41 discriminator 3
	ldr	r3, [sp, #28]
	adds	r3, r3, #1
	str	r3, [sp, #28]
.L54:
	.loc 1 296 29 discriminator 1
	ldr	r3, [sp, #20]
	.loc 1 296 5 discriminator 1
	ldr	r2, [sp, #28]
	cmp	r2, r3
	bcc	.L55
.L53:
.LBE2:
	.loc 1 295 10
	add	r2, sp, #20
	add	r3, sp, #24
	mov	r1, r2
	mov	r0, r3
	bl	CMD_get_one_word
	mov	r3, r0
	.loc 1 295 9
	cmp	r3, #0
	bne	.L56
	.loc 1 300 10
	movs	r3, #1
.L57:
	.loc 1 301 1 discriminator 1
	mov	r0, r3
	add	sp, sp, #36
.LCFI11:
	@ sp needed
	ldr	pc, [sp], #4
.L59:
	.align	2
.L58:
	.word	.LC31
.LFE336:
	.size	Dump_GPIO, .-Dump_GPIO
	.section .rodata
	.align	2
.LC32:
	.ascii	"Usage: 'De/ReInit <devicenum>\012\000"
	.section	.text.Devices_Menu,"ax",%progbits
	.align	1
	.syntax unified
	.thumb
	.thumb_func
	.fpu fpv5-d16
	.type	Devices_Menu, %function
Devices_Menu:
.LFB337:
	.loc 1 304 1
	@ args = 0, pretend = 0, frame = 32
	@ frame_needed = 0, uses_anonymous_args = 0
	push	{lr}
.LCFI12:
	sub	sp, sp, #36
.LCFI13:
	str	r0, [sp, #12]
	str	r1, [sp, #8]
	str	r2, [sp, #4]
	.loc 1 312 11
	ldr	r3, [sp, #4]
	cmp	r3, #5
	bhi	.L61
	adr	r2, .L63
	ldr	pc, [r2, r3, lsl #2]
	.p2align 2
.L63:
	.word	.L67+1
	.word	.L66+1
	.word	.L65+1
	.word	.L64+1
	.word	.L62+1
	.word	.L62+1
	.p2align 1
.L67:
	.loc 1 314 7
	bl	DBG_sram
	.loc 1 315 7
	b	.L68
.L66:
	.loc 1 317 7
	movs	r0, #0
	bl	DBG_dump_exti_config
	.loc 1 318 7
	movs	r0, #1
	bl	DBG_dump_exti_config
	.loc 1 319 7
	b	.L68
.L65:
	.loc 1 321 7
	bl	DBG_dump_nvic_config
	.loc 1 322 7
	b	.L68
.L64:
	.loc 1 324 7
	movs	r0, #1
	bl	DBG_dump_devices
	.loc 1 325 7
	b	.L68
.L62:
	.loc 1 328 12
	bl	CMD_argc
	mov	r3, r0
	.loc 1 328 10
	cmp	r3, #0
	bne	.L69
	.loc 1 329 9
	ldr	r0, .L75
	bl	printf
	.loc 1 330 16
	movs	r3, #0
	b	.L74
.L69:
	.loc 1 332 7
	add	r2, sp, #16
	add	r3, sp, #20
	mov	r1, r2
	mov	r0, r3
	bl	CMD_get_one_word
	.loc 1 333 13
	ldr	r3, [sp, #20]
	ldr	r2, [sp, #16]
	mov	r1, r2
	mov	r0, r3
	bl	CMD_to_number
	mov	r3, r0
	.loc 1 333 11
	strb	r3, [sp, #27]
	.loc 1 334 10
	ldr	r3, [sp, #4]
	cmp	r3, #5
	bne	.L71
	.loc 1 335 17
	movs	r3, #0
	str	r3, [sp, #28]
	.loc 1 336 14
	bl	CMD_argc
	mov	r3, r0
	.loc 1 336 12
	cmp	r3, #1
	bls	.L72
	.loc 1 337 11
	add	r2, sp, #16
	add	r3, sp, #20
	mov	r1, r2
	mov	r0, r3
	bl	CMD_get_one_word
	.loc 1 338 21
	ldr	r3, [sp, #20]
	ldr	r2, [sp, #16]
	mov	r1, r2
	mov	r0, r3
	bl	CMD_to_number
	str	r0, [sp, #28]
.L72:
	.loc 1 340 9
	ldrb	r3, [sp, #27]	@ zero_extendqisi2
	ldr	r2, [sp, #28]
	mov	r1, r2
	mov	r0, r3
	bl	DeviceInitByIdx
	.loc 1 344 7
	b	.L68
.L71:
	.loc 1 342 9
	ldrb	r3, [sp, #27]	@ zero_extendqisi2
	mov	r0, r3
	bl	DeviceDeInitByIdx
	.loc 1 344 7
	b	.L68
.L61:
	.loc 1 346 7
	ldr	r0, .L75+4
	bl	puts
.L68:
	.loc 1 349 10
	movs	r3, #1
.L74:
	.loc 1 350 1 discriminator 1
	mov	r0, r3
	add	sp, sp, #36
.LCFI14:
	@ sp needed
	ldr	pc, [sp], #4
.L76:
	.align	2
.L75:
	.word	.LC32
	.word	.LC6
.LFE337:
	.size	Devices_Menu, .-Devices_Menu
	.section .rodata
	.align	2
.LC33:
	.ascii	"Devices\000"
	.section	.text.pmtDevices,"ax",%progbits
	.align	1
	.syntax unified
	.thumb
	.thumb_func
	.fpu fpv5-d16
	.type	pmtDevices, %function
pmtDevices:
.LFB338:
	.loc 1 354 1
	@ args = 0, pretend = 0, frame = 0
	@ frame_needed = 0, uses_anonymous_args = 0
	@ link register save eliminated.
	.loc 1 355 10
	ldr	r3, .L79
	.loc 1 356 1
	mov	r0, r3
	bx	lr
.L80:
	.align	2
.L79:
	.word	.LC33
.LFE338:
	.size	pmtDevices, .-pmtDevices
	.section .rodata
	.align	2
.LC34:
	.ascii	"SRAM\000"
	.align	2
.LC35:
	.ascii	"Show SRAM sections and usage\000"
	.align	2
.LC36:
	.ascii	"EXTI\000"
	.align	2
.LC37:
	.ascii	"Show EXTI settings\000"
	.align	2
.LC38:
	.ascii	"NVIC\000"
	.align	2
.LC39:
	.ascii	"Show NVIC settings\000"
	.align	2
.LC40:
	.ascii	"GPIO\000"
	.align	2
.LC41:
	.ascii	"Show GPIO settings\000"
	.align	2
.LC42:
	.ascii	"Dump Devices\000"
	.align	2
.LC43:
	.ascii	"Dev Init\000"
	.align	2
.LC44:
	.ascii	"DeInit Device i\000"
	.align	2
.LC45:
	.ascii	"Dev DeInit\000"
	.align	2
.LC46:
	.ascii	"ReInit Device i\000"
	.align	2
.LC47:
	.ascii	"Toggle 8x\000"
	.align	2
.LC48:
	.ascii	"Toggle GPIO pin 8x\000"
	.align	2
.LC49:
	.ascii	"Alter\000"
	.align	2
.LC50:
	.ascii	"Alter output value of pin\000"
	.align	2
.LC51:
	.ascii	"Pin Init\000"
	.align	2
.LC52:
	.ascii	"Set Output Pin\000"
	.align	2
.LC53:
	.ascii	"Pin DeInit\000"
	.align	2
.LC54:
	.ascii	"Reset Output Pin\000"
	.section	.rodata.cmdDevices,"a"
	.align	2
	.type	cmdDevices, %object
	.size	cmdDevices, 220
cmdDevices:
	.word	.LC34
	.byte	0
	.space	3
	.word	Devices_Menu
	.word	0
	.word	.LC35
	.word	.LC36
	.byte	0
	.space	3
	.word	Devices_Menu
	.word	1
	.word	.LC37
	.word	.LC38
	.byte	0
	.space	3
	.word	Devices_Menu
	.word	2
	.word	.LC39
	.word	.LC40
	.byte	0
	.space	3
	.word	Dump_GPIO
	.word	0
	.word	.LC41
	.word	.LC33
	.byte	0
	.space	3
	.word	Devices_Menu
	.word	3
	.word	.LC42
	.word	.LC43
	.byte	0
	.space	3
	.word	Devices_Menu
	.word	4
	.word	.LC44
	.word	.LC45
	.byte	0
	.space	3
	.word	Devices_Menu
	.word	5
	.word	.LC46
	.word	.LC47
	.byte	0
	.space	3
	.word	Toggle_GPIO
	.word	0
	.word	.LC48
	.word	.LC49
	.byte	0
	.space	3
	.word	Toggle_GPIO
	.word	1
	.word	.LC50
	.word	.LC51
	.byte	0
	.space	3
	.word	Init_GPIO
	.word	0
	.word	.LC52
	.word	.LC53
	.byte	0
	.space	3
	.word	Init_GPIO
	.word	1
	.word	.LC54
	.global	mdlDevices
	.section	.rodata.mdlDevices,"a"
	.align	2
	.type	mdlDevices, %object
	.size	mdlDevices, 12
mdlDevices:
	.word	pmtDevices
	.word	cmdDevices
	.word	11
	.section .rodata
	.align	2
.LC55:
	.ascii	"Usage: 'Reset X\012\000"
	.align	2
.LC56:
	.ascii	"Watchdog reset\000"
	.section	.text.Test_WD_reset,"ax",%progbits
	.align	1
	.syntax unified
	.thumb
	.thumb_func
	.fpu fpv5-d16
	.type	Test_WD_reset, %function
Test_WD_reset:
.LFB339:
	.loc 1 607 1
	@ args = 0, pretend = 0, frame = 24
	@ frame_needed = 0, uses_anonymous_args = 0
	push	{lr}
.LCFI15:
	sub	sp, sp, #28
.LCFI16:
	str	r0, [sp, #12]
	str	r1, [sp, #8]
	str	r2, [sp, #4]
	.loc 1 612 8
	bl	CMD_argc
	mov	r3, r0
	.loc 1 612 6
	cmp	r3, #0
	beq	.L82
	.loc 1 612 28 discriminator 1
	add	r2, sp, #16
	add	r3, sp, #20
	mov	r1, r2
	mov	r0, r3
	bl	CMD_get_one_word
	.loc 1 612 65 discriminator 1
	ldr	r3, [sp, #20]
	ldrb	r3, [r3]	@ zero_extendqisi2
	.loc 1 612 78 discriminator 1
	cmp	r3, #88
	beq	.L83
	.loc 1 612 81 discriminator 2
	ldr	r3, [sp, #20]
	ldrb	r3, [r3]	@ zero_extendqisi2
	.loc 1 612 78 discriminator 2
	cmp	r3, #120
	beq	.L83
	.loc 1 612 78 is_stmt 0 discriminator 4
	movs	r3, #1
	b	.L84
.L83:
	.loc 1 612 78 discriminator 5
	movs	r3, #0
.L84:
	.loc 1 612 23 is_stmt 1 discriminator 7
	cmp	r3, #0
	beq	.L85
.L82:
	.loc 1 613 7
	ldr	r0, .L88
	bl	printf
	.loc 1 614 14
	movs	r3, #0
	b	.L87
.L85:
	.loc 1 617 3
	ldr	r0, .L88+4
	bl	puts
	.loc 1 620 3
	mov	r0, #500
	bl	TimerWatchdogReset
	.loc 1 622 10
	movs	r3, #1
.L87:
	.loc 1 623 1 discriminator 1
	mov	r0, r3
	add	sp, sp, #28
.LCFI17:
	@ sp needed
	ldr	pc, [sp], #4
.L89:
	.align	2
.L88:
	.word	.LC55
	.word	.LC56
.LFE339:
	.size	Test_WD_reset, .-Test_WD_reset
	.section .rodata
	.align	2
.LC57:
	.ascii	"Usage: 'Sleep {0|1}\012\000"
	.align	2
.LC58:
	.ascii	"Inhibit Stop\000"
	.align	2
.LC59:
	.ascii	"Allow Stop\000"
	.section	.text.Test_Sleep,"ax",%progbits
	.align	1
	.syntax unified
	.thumb
	.thumb_func
	.fpu fpv5-d16
	.type	Test_Sleep, %function
Test_Sleep:
.LFB340:
	.loc 1 627 5
	@ args = 0, pretend = 0, frame = 32
	@ frame_needed = 0, uses_anonymous_args = 0
	push	{lr}
.LCFI18:
	sub	sp, sp, #36
.LCFI19:
	str	r0, [sp, #12]
	str	r1, [sp, #8]
	str	r2, [sp, #4]
	.loc 1 633 12
	bl	CMD_argc
	mov	r3, r0
	.loc 1 633 10
	cmp	r3, #0
	beq	.L91
	.loc 1 633 32 discriminator 1
	add	r2, sp, #20
	add	r3, sp, #24
	mov	r1, r2
	mov	r0, r3
	bl	CMD_get_one_word
	.loc 1 633 73 discriminator 1
	ldr	r3, [sp, #24]
	.loc 1 633 71 discriminator 1
	ldrb	r3, [r3]
	strb	r3, [sp, #31]
	.loc 1 633 90 discriminator 1
	ldrb	r3, [sp, #31]	@ zero_extendqisi2
	cmp	r3, #48
	beq	.L92
	.loc 1 633 90 is_stmt 0 discriminator 2
	ldrb	r3, [sp, #31]	@ zero_extendqisi2
	cmp	r3, #49
	beq	.L92
	.loc 1 633 90 discriminator 4
	movs	r3, #1
	b	.L93
.L92:
	.loc 1 633 90 discriminator 5
	movs	r3, #0
.L93:
	.loc 1 633 27 is_stmt 1 discriminator 7
	cmp	r3, #0
	beq	.L94
.L91:
	.loc 1 634 11
	ldr	r0, .L99
	bl	printf
	.loc 1 635 18
	movs	r3, #0
	b	.L98
.L94:
	.loc 1 638 10
	ldrb	r3, [sp, #31]	@ zero_extendqisi2
	cmp	r3, #48
	bne	.L96
	.loc 1 639 22
	ldr	r3, .L99+4
	movs	r2, #0
	str	r2, [r3]
	.loc 1 640 11
	ldr	r0, .L99+8
	bl	puts
	b	.L97
.L96:
	.loc 1 642 22
	ldr	r3, .L99+4
	movs	r2, #1
	str	r2, [r3]
	.loc 1 643 11
	ldr	r0, .L99+12
	bl	puts
.L97:
	.loc 1 646 14
	movs	r3, #1
.L98:
	.loc 1 647 5 discriminator 1
	mov	r0, r3
	add	sp, sp, #36
.LCFI20:
	@ sp needed
	ldr	pc, [sp], #4
.L100:
	.align	2
.L99:
	.word	.LC57
	.word	bAllowStop
	.word	.LC58
	.word	.LC59
.LFE340:
	.size	Test_Sleep, .-Test_Sleep
	.section	.bss.tmrID,"aw",%nobits
	.type	tmrID, %object
	.size	tmrID, 1
tmrID:
	.space	1
	.section	.text.TimerCB,"ax",%progbits
	.align	1
	.global	TimerCB
	.syntax unified
	.thumb
	.thumb_func
	.fpu fpv5-d16
	.type	TimerCB, %function
TimerCB:
.LFB341:
	.loc 1 652 1
	@ args = 0, pretend = 0, frame = 8
	@ frame_needed = 0, uses_anonymous_args = 0
	@ link register save eliminated.
	sub	sp, sp, #8
.LCFI21:
	str	r0, [sp, #4]
	.loc 1 655 1
	nop
	add	sp, sp, #8
.LCFI22:
	@ sp needed
	bx	lr
.LFE341:
	.size	TimerCB, .-TimerCB
	.section .rodata
	.align	2
.LC60:
	.ascii	"Usage: 'TmrAbs nn [1] \012\000"
	.section	.text.Test_TmrAbs,"ax",%progbits
	.align	1
	.syntax unified
	.thumb
	.thumb_func
	.fpu fpv5-d16
	.type	Test_TmrAbs, %function
Test_TmrAbs:
.LFB342:
	.loc 1 658 1
	@ args = 0, pretend = 0, frame = 32
	@ frame_needed = 0, uses_anonymous_args = 0
	push	{lr}
.LCFI23:
	sub	sp, sp, #36
.LCFI24:
	str	r0, [sp, #12]
	str	r1, [sp, #8]
	str	r2, [sp, #4]
	.loc 1 663 8
	bl	CMD_argc
	mov	r3, r0
	.loc 1 663 6
	cmp	r3, #0
	bne	.L103
	.loc 1 664 7
	ldr	r0, .L106
	bl	printf
	.loc 1 665 14
	movs	r3, #0
	b	.L105
.L103:
	.loc 1 668 3
	add	r2, sp, #20
	add	r3, sp, #24
	mov	r1, r2
	mov	r0, r3
	bl	CMD_get_one_word
	.loc 1 669 18
	ldr	r3, [sp, #24]
	ldr	r2, [sp, #20]
	mov	r1, r2
	mov	r0, r3
	bl	CMD_to_number
	str	r0, [sp, #28]
	.loc 1 672 27
	ldr	r3, [sp, #28]
	lsls	r3, r3, #11
	ldr	r2, .L106+4
	umull	r2, r3, r2, r3
	lsrs	r3, r3, #6
	.loc 1 672 11
	movs	r2, #0
	ldr	r1, .L106+8
	mov	r0, r3
	bl	MsTimerSetAbs
	mov	r3, r0
	uxtb	r2, r3
	.loc 1 672 9
	ldr	r3, .L106+12
	strb	r2, [r3]
	.loc 1 674 10
	movs	r3, #1
.L105:
	.loc 1 675 1 discriminator 1
	mov	r0, r3
	add	sp, sp, #36
.LCFI25:
	@ sp needed
	ldr	pc, [sp], #4
.L107:
	.align	2
.L106:
	.word	.LC60
	.word	274877907
	.word	TimerCB
	.word	tmrID
.LFE342:
	.size	Test_TmrAbs, .-Test_TmrAbs
	.section .rodata
	.align	2
.LC61:
	.ascii	"Usage: 'TmrRel nn [1] \012\000"
	.align	2
.LC62:
	.ascii	"Periodic Rel Timer to %d\012\000"
	.align	2
.LC63:
	.ascii	"One Shot Rel Timer to %d\012\000"
	.section	.text.Test_TmrRel,"ax",%progbits
	.align	1
	.syntax unified
	.thumb
	.thumb_func
	.fpu fpv5-d16
	.type	Test_TmrRel, %function
Test_TmrRel:
.LFB343:
	.loc 1 678 1
	@ args = 0, pretend = 0, frame = 40
	@ frame_needed = 0, uses_anonymous_args = 0
	push	{lr}
.LCFI26:
	sub	sp, sp, #44
.LCFI27:
	str	r0, [sp, #12]
	str	r1, [sp, #8]
	str	r2, [sp, #4]
	.loc 1 684 8
	bl	CMD_argc
	mov	r3, r0
	.loc 1 684 6
	cmp	r3, #0
	bne	.L109
	.loc 1 685 7
	ldr	r0, .L114
	bl	printf
	.loc 1 686 14
	movs	r3, #0
	b	.L113
.L109:
	.loc 1 689 3
	add	r2, sp, #20
	add	r3, sp, #24
	mov	r1, r2
	mov	r0, r3
	bl	CMD_get_one_word
	.loc 1 690 18
	ldr	r3, [sp, #24]
	ldr	r2, [sp, #20]
	mov	r1, r2
	mov	r0, r3
	bl	CMD_to_number
	str	r0, [sp, #32]
	.loc 1 691 12
	movs	r3, #0
	str	r3, [sp, #28]
	.loc 1 693 8
	bl	CMD_argc
	mov	r3, r0
	.loc 1 693 6
	cmp	r3, #0
	beq	.L111
	.loc 1 694 7
	add	r2, sp, #20
	add	r3, sp, #24
	mov	r1, r2
	mov	r0, r3
	bl	CMD_get_one_word
	.loc 1 695 14
	ldr	r3, [sp, #24]
	ldr	r2, [sp, #20]
	mov	r1, r2
	mov	r0, r3
	bl	CMD_to_number
	str	r0, [sp, #28]
	.loc 1 696 24
	ldr	r3, [sp, #28]
	cmp	r3, #0
	ite	ne
	movne	r3, #1
	moveq	r3, #0
	uxtb	r3, r3
	.loc 1 696 17
	str	r3, [sp, #36]
	.loc 1 697 7
	ldr	r1, [sp, #32]
	ldr	r0, .L114+4
	bl	printf
	b	.L112
.L111:
	.loc 1 699 7
	ldr	r1, [sp, #32]
	ldr	r0, .L114+8
	bl	printf
	.loc 1 700 17
	movs	r3, #0
	str	r3, [sp, #36]
.L112:
	.loc 1 703 27
	ldr	r3, [sp, #32]
	lsls	r3, r3, #11
	ldr	r2, .L114+12
	umull	r2, r3, r2, r3
	lsrs	r0, r3, #6
	.loc 1 703 11
	movs	r3, #0
	ldr	r2, .L114+16
	ldr	r1, [sp, #36]
	bl	MsTimerSetRel
	mov	r3, r0
	uxtb	r2, r3
	.loc 1 703 9
	ldr	r3, .L114+20
	strb	r2, [r3]
	.loc 1 705 10
	movs	r3, #1
.L113:
	.loc 1 706 1 discriminator 1
	mov	r0, r3
	add	sp, sp, #44
.LCFI28:
	@ sp needed
	ldr	pc, [sp], #4
.L115:
	.align	2
.L114:
	.word	.LC61
	.word	.LC62
	.word	.LC63
	.word	274877907
	.word	TimerCB
	.word	tmrID
.LFE343:
	.size	Test_TmrRel, .-Test_TmrRel
	.section	.text.Test_TmrDel,"ax",%progbits
	.align	1
	.syntax unified
	.thumb
	.thumb_func
	.fpu fpv5-d16
	.type	Test_TmrDel, %function
Test_TmrDel:
.LFB344:
	.loc 1 709 1
	@ args = 0, pretend = 0, frame = 16
	@ frame_needed = 0, uses_anonymous_args = 0
	push	{lr}
.LCFI29:
	sub	sp, sp, #20
.LCFI30:
	str	r0, [sp, #12]
	str	r1, [sp, #8]
	str	r2, [sp, #4]
	.loc 1 711 3
	ldr	r3, .L118
	ldrb	r3, [r3]	@ zero_extendqisi2
	sxtb	r3, r3
	mov	r0, r3
	bl	MsTimerDelete
	.loc 1 712 10
	movs	r3, #1
	.loc 1 713 1
	mov	r0, r3
	add	sp, sp, #20
.LCFI31:
	@ sp needed
	ldr	pc, [sp], #4
.L119:
	.align	2
.L118:
	.word	tmrID
.LFE344:
	.size	Test_TmrDel, .-Test_TmrDel
	.section .rodata
	.align	2
.LC64:
	.ascii	"@%02x Tmr activation by iteration %d\012\000"
	.section	.text.TestCB,"ax",%progbits
	.align	1
	.global	TestCB
	.syntax unified
	.thumb
	.thumb_func
	.fpu fpv5-d16
	.type	TestCB, %function
TestCB:
.LFB345:
	.loc 1 716 1
	@ args = 0, pretend = 0, frame = 8
	@ frame_needed = 0, uses_anonymous_args = 0
	push	{lr}
.LCFI32:
	sub	sp, sp, #12
.LCFI33:
	str	r0, [sp, #4]
	.loc 1 717 5
	bl	RTC_GetTimer
	mov	r3, r0
	lsrs	r3, r3, #3
	uxth	r3, r3
	uxtb	r3, r3
	ldr	r2, [sp, #4]
	mov	r1, r3
	ldr	r0, .L121
	bl	printf
	.loc 1 718 1
	nop
	add	sp, sp, #12
.LCFI34:
	@ sp needed
	ldr	pc, [sp], #4
.L122:
	.align	2
.L121:
	.word	.LC64
.LFE345:
	.size	TestCB, .-TestCB
	.section .rodata
	.align	2
.LC65:
	.ascii	"Usage: 'TmrMulti nn \012\000"
	.align	2
.LC66:
	.ascii	"Could not allocate TimerID\000"
	.align	2
.LC67:
	.ascii	"Could not ReSet Timer\000"
	.section	.text.Test_TmrMulti,"ax",%progbits
	.align	1
	.syntax unified
	.thumb
	.thumb_func
	.fpu fpv5-d16
	.type	Test_TmrMulti, %function
Test_TmrMulti:
.LFB346:
	.loc 1 721 1
	@ args = 0, pretend = 0, frame = 40
	@ frame_needed = 0, uses_anonymous_args = 0
	push	{lr}
.LCFI35:
	sub	sp, sp, #52
.LCFI36:
	str	r0, [sp, #20]
	str	r1, [sp, #16]
	str	r2, [sp, #12]
	.loc 1 726 8
	bl	CMD_argc
	mov	r3, r0
	.loc 1 726 6
	cmp	r3, #0
	bne	.L124
	.loc 1 727 7
	ldr	r0, .L132
	bl	printf
	.loc 1 728 14
	movs	r3, #0
	b	.L131
.L124:
	.loc 1 731 3
	add	r2, sp, #24
	add	r3, sp, #28
	mov	r1, r2
	mov	r0, r3
	bl	CMD_get_one_word
	.loc 1 732 18
	ldr	r3, [sp, #28]
	ldr	r2, [sp, #24]
	mov	r1, r2
	mov	r0, r3
	bl	CMD_to_number
	str	r0, [sp, #40]
	.loc 1 734 18
	mov	r0, #-1
	bl	MsTimerAllocate
	mov	r3, r0
	strb	r3, [sp, #39]
	.loc 1 735 6
	ldrsb	r3, [sp, #39]
	cmp	r3, #-1
	bne	.L126
	.loc 1 736 5
	ldr	r0, .L132+4
	bl	puts
	.loc 1 737 12
	movs	r3, #0
	b	.L131
.L126:
.LBB3:
	.loc 1 740 18
	movs	r3, #0
	str	r3, [sp, #44]
	.loc 1 740 3
	b	.L127
.L130:
.LBB4:
	.loc 1 741 10
	ldrsb	r0, [sp, #39]
	ldr	r3, [sp, #44]
	str	r3, [sp]
	ldr	r3, .L132+8
	movs	r2, #0
	movs	r1, #40
	bl	MsTimerReUseRel
	mov	r3, r0
	.loc 1 741 8
	cmp	r3, #-1
	bne	.L128
	.loc 1 742 9
	ldr	r0, .L132+12
	bl	puts
.L128:
	.loc 1 743 20
	bl	RTC_GetTimer
	mov	r3, r0
	lsrs	r3, r3, #3
	uxth	r3, r3
	uxtb	r3, r3
	.loc 1 743 33
	adds	r3, r3, #2
	.loc 1 743 14
	str	r3, [sp, #32]
	.loc 1 744 11
	nop
.L129:
	.loc 1 744 13 discriminator 1
	bl	RTC_GetTimer
	mov	r3, r0
	lsrs	r3, r3, #3
	uxth	r3, r3
	uxtb	r3, r3
	mov	r2, r3
	.loc 1 744 11 discriminator 1
	ldr	r3, [sp, #32]
	cmp	r3, r2
	bne	.L129
.LBE4:
	.loc 1 740 35 discriminator 2
	ldr	r3, [sp, #44]
	adds	r3, r3, #1
	str	r3, [sp, #44]
.L127:
	.loc 1 740 3 discriminator 1
	ldr	r2, [sp, #44]
	ldr	r3, [sp, #40]
	cmp	r2, r3
	bcc	.L130
.LBE3:
	.loc 1 746 10
	movs	r3, #1
.L131:
	.loc 1 747 1 discriminator 1
	mov	r0, r3
	add	sp, sp, #52
.LCFI37:
	@ sp needed
	ldr	pc, [sp], #4
.L133:
	.align	2
.L132:
	.word	.LC65
	.word	.LC66
	.word	TestCB
	.word	.LC67
.LFE346:
	.size	Test_TmrMulti, .-Test_TmrMulti
	.section .rodata
	.align	2
.LC68:
	.ascii	"TmrKill: Could not Set Timer 0\000"
	.align	2
.LC69:
	.ascii	"TmrKill: Could not Set Timer 1\000"
	.align	2
.LC70:
	.ascii	"TmrKill: Could not set timer 2\000"
	.align	2
.LC71:
	.ascii	"TmrKill: Could not set timer 3\000"
	.align	2
.LC72:
	.ascii	"TmrKill: Could not set timer 4\000"
	.align	2
.LC73:
	.ascii	"TmrKill: Could not set timer 5\000"
	.section	.text.Test_TmrKill,"ax",%progbits
	.align	1
	.syntax unified
	.thumb
	.thumb_func
	.fpu fpv5-d16
	.type	Test_TmrKill, %function
Test_TmrKill:
.LFB347:
	.loc 1 750 1
	@ args = 0, pretend = 0, frame = 24
	@ frame_needed = 0, uses_anonymous_args = 0
	push	{lr}
.LCFI38:
	sub	sp, sp, #36
.LCFI39:
	str	r0, [sp, #20]
	str	r1, [sp, #16]
	str	r2, [sp, #12]
	.loc 1 755 12
	movs	r3, #0
	str	r3, [sp, #28]
	.loc 1 759 9
	ldr	r3, [sp, #28]
	adds	r2, r3, #1
	str	r2, [sp, #28]
	ldr	r2, .L147
	movs	r1, #0
	movs	r0, #30
	bl	MsTimerSetRel
	mov	r3, r0
	strb	r3, [sp, #27]
	.loc 1 760 6
	ldrsb	r3, [sp, #27]
	cmp	r3, #-1
	bne	.L135
	.loc 1 761 5
	ldr	r0, .L147+4
	bl	puts
	.loc 1 762 12
	movs	r3, #0
	b	.L136
.L135:
	.loc 1 764 22
	bl	RTC_GetTimer
	mov	r3, r0
	.loc 1 764 8
	adds	r3, r3, #4
	strh	r3, [sp, #24]	@ movhi
	.loc 1 765 10
	nop
.L137:
	.loc 1 765 12 discriminator 1
	bl	RTC_GetTimer
	mov	r3, r0
	lsrs	r3, r3, #3
	uxth	r3, r3
	uxtb	r3, r3
	uxth	r3, r3
	.loc 1 765 10 discriminator 1
	ldrh	r2, [sp, #24]
	cmp	r2, r3
	beq	.L137
	.loc 1 767 9
	ldr	r3, [sp, #28]
	adds	r2, r3, #1
	str	r2, [sp, #28]
	ldrsb	r0, [sp, #27]
	str	r3, [sp]
	ldr	r3, .L147
	movs	r2, #0
	movs	r1, #40
	bl	MsTimerReUseRel
	mov	r3, r0
	strb	r3, [sp, #27]
	.loc 1 768 6
	ldrsb	r3, [sp, #27]
	cmp	r3, #-1
	bne	.L138
	.loc 1 769 5
	ldr	r0, .L147+8
	bl	puts
	.loc 1 770 12
	movs	r3, #0
	b	.L136
.L138:
	.loc 1 772 22
	bl	RTC_GetTimer
	mov	r3, r0
	.loc 1 772 8
	adds	r3, r3, #4
	strh	r3, [sp, #24]	@ movhi
	.loc 1 773 10
	nop
.L139:
	.loc 1 773 12 discriminator 1
	bl	RTC_GetTimer
	mov	r3, r0
	lsrs	r3, r3, #3
	uxth	r3, r3
	uxtb	r3, r3
	uxth	r3, r3
	.loc 1 773 10 discriminator 1
	ldrh	r2, [sp, #24]
	cmp	r2, r3
	beq	.L139
	.loc 1 775 9
	ldr	r3, [sp, #28]
	adds	r2, r3, #1
	str	r2, [sp, #28]
	ldrsb	r0, [sp, #27]
	str	r3, [sp]
	ldr	r3, .L147
	movs	r2, #0
	movs	r1, #51
	bl	MsTimerReUseRel
	mov	r3, r0
	strb	r3, [sp, #27]
	.loc 1 776 6
	ldrsb	r3, [sp, #27]
	cmp	r3, #-1
	bne	.L140
	.loc 1 777 5
	ldr	r0, .L147+12
	bl	puts
	.loc 1 778 12
	movs	r3, #0
	b	.L136
.L140:
	.loc 1 780 22
	bl	RTC_GetTimer
	mov	r3, r0
	.loc 1 780 8
	adds	r3, r3, #4
	strh	r3, [sp, #24]	@ movhi
	.loc 1 781 10
	nop
.L141:
	.loc 1 781 12 discriminator 1
	bl	RTC_GetTimer
	mov	r3, r0
	lsrs	r3, r3, #3
	uxth	r3, r3
	uxtb	r3, r3
	uxth	r3, r3
	.loc 1 781 10 discriminator 1
	ldrh	r2, [sp, #24]
	cmp	r2, r3
	beq	.L141
	.loc 1 783 9
	ldr	r3, [sp, #28]
	adds	r2, r3, #1
	str	r2, [sp, #28]
	ldrsb	r0, [sp, #27]
	str	r3, [sp]
	ldr	r3, .L147
	movs	r2, #0
	movs	r1, #61
	bl	MsTimerReUseRel
	mov	r3, r0
	strb	r3, [sp, #27]
	.loc 1 784 6
	ldrsb	r3, [sp, #27]
	cmp	r3, #-1
	bne	.L142
	.loc 1 785 5
	ldr	r0, .L147+16
	bl	puts
	.loc 1 786 12
	movs	r3, #0
	b	.L136
.L142:
	.loc 1 788 22
	bl	RTC_GetTimer
	mov	r3, r0
	.loc 1 788 8
	adds	r3, r3, #4
	strh	r3, [sp, #24]	@ movhi
	.loc 1 789 10
	nop
.L143:
	.loc 1 789 12 discriminator 1
	bl	RTC_GetTimer
	mov	r3, r0
	lsrs	r3, r3, #3
	uxth	r3, r3
	uxtb	r3, r3
	uxth	r3, r3
	.loc 1 789 10 discriminator 1
	ldrh	r2, [sp, #24]
	cmp	r2, r3
	beq	.L143
	.loc 1 791 9
	ldr	r3, [sp, #28]
	adds	r2, r3, #1
	str	r2, [sp, #28]
	ldrsb	r0, [sp, #27]
	str	r3, [sp]
	ldr	r3, .L147
	movs	r2, #0
	movs	r1, #71
	bl	MsTimerReUseRel
	mov	r3, r0
	strb	r3, [sp, #27]
	.loc 1 792 6
	ldrsb	r3, [sp, #27]
	cmp	r3, #-1
	bne	.L144
	.loc 1 793 5
	ldr	r0, .L147+20
	bl	puts
	.loc 1 794 12
	movs	r3, #0
	b	.L136
.L144:
	.loc 1 797 22
	bl	RTC_GetTimer
	mov	r3, r0
	.loc 1 797 8
	adds	r3, r3, #4
	strh	r3, [sp, #24]	@ movhi
	.loc 1 798 10
	nop
.L145:
	.loc 1 798 12 discriminator 1
	bl	RTC_GetTimer
	mov	r3, r0
	lsrs	r3, r3, #3
	uxth	r3, r3
	uxtb	r3, r3
	uxth	r3, r3
	.loc 1 798 10 discriminator 1
	ldrh	r2, [sp, #24]
	cmp	r2, r3
	beq	.L145
	.loc 1 800 9
	ldrsb	r0, [sp, #27]
	movs	r3, #0
	str	r3, [sp]
	ldr	r3, .L147
	movs	r2, #0
	movs	r1, #81
	bl	MsTimerReUseRel
	mov	r3, r0
	strb	r3, [sp, #27]
	.loc 1 801 6
	ldrsb	r3, [sp, #27]
	cmp	r3, #-1
	bne	.L146
	.loc 1 802 5
	ldr	r0, .L147+24
	bl	puts
	.loc 1 803 12
	movs	r3, #0
	b	.L136
.L146:
	.loc 1 807 10
	movs	r3, #1
.L136:
	.loc 1 808 1
	mov	r0, r3
	add	sp, sp, #36
.LCFI40:
	@ sp needed
	ldr	pc, [sp], #4
.L148:
	.align	2
.L147:
	.word	TestCB
	.word	.LC68
	.word	.LC69
	.word	.LC70
	.word	.LC71
	.word	.LC72
	.word	.LC73
.LFE347:
	.size	Test_TmrKill, .-Test_TmrKill
	.section .rodata
	.align	2
.LC74:
	.ascii	"1 Step\000"
	.section	.text.UserPinSignal1,"ax",%progbits
	.align	1
	.global	UserPinSignal1
	.syntax unified
	.thumb
	.thumb_func
	.fpu fpv5-d16
	.type	UserPinSignal1, %function
UserPinSignal1:
.LFB348:
	.loc 1 811 1
	@ args = 0, pretend = 0, frame = 0
	@ frame_needed = 0, uses_anonymous_args = 0
	push	{r3, lr}
.LCFI41:
	.loc 1 812 3
	movs	r0, #2
	bl	IO_UserLedOn
	.loc 1 815 3
	ldr	r0, .L150
	bl	puts
	.loc 1 816 3
	movs	r0, #2
	bl	IO_UserLedOff
	.loc 1 817 1
	nop
	pop	{r3, pc}
.L151:
	.align	2
.L150:
	.word	.LC74
.LFE348:
	.size	UserPinSignal1, .-UserPinSignal1
	.section	.bss.downcnt,"aw",%nobits
	.align	2
	.type	downcnt, %object
	.size	downcnt, 4
downcnt:
	.space	4
	.section	.bss.cnttmr,"aw",%nobits
	.type	cnttmr, %object
	.size	cnttmr, 1
cnttmr:
	.space	1
	.section	.text.SignalNCB,"ax",%progbits
	.align	1
	.global	SignalNCB
	.syntax unified
	.thumb
	.thumb_func
	.fpu fpv5-d16
	.type	SignalNCB, %function
SignalNCB:
.LFB349:
	.loc 1 822 1
	@ args = 0, pretend = 0, frame = 8
	@ frame_needed = 0, uses_anonymous_args = 0
	push	{lr}
.LCFI42:
	sub	sp, sp, #12
.LCFI43:
	str	r0, [sp, #4]
	.loc 1 824 16
	ldr	r3, .L156
	ldr	r3, [r3]
	.loc 1 824 6
	cmp	r3, #0
	bne	.L153
	.loc 1 825 5
	ldr	r3, .L156+4
	ldrsb	r3, [r3]
	mov	r0, r3
	bl	MsTimerDelete
	.loc 1 830 1
	b	.L155
.L153:
	.loc 1 827 5
	bl	UserPinSignal1
	.loc 1 828 13
	ldr	r3, .L156
	ldr	r3, [r3]
	subs	r3, r3, #1
	ldr	r2, .L156
	str	r3, [r2]
.L155:
	.loc 1 830 1
	nop
	add	sp, sp, #12
.LCFI44:
	@ sp needed
	ldr	pc, [sp], #4
.L157:
	.align	2
.L156:
	.word	downcnt
	.word	cnttmr
.LFE349:
	.size	SignalNCB, .-SignalNCB
	.section	.text.UserPinSignalN,"ax",%progbits
	.align	1
	.global	UserPinSignalN
	.syntax unified
	.thumb
	.thumb_func
	.fpu fpv5-d16
	.type	UserPinSignalN, %function
UserPinSignalN:
.LFB350:
	.loc 1 833 1
	@ args = 0, pretend = 0, frame = 8
	@ frame_needed = 0, uses_anonymous_args = 0
	push	{lr}
.LCFI45:
	sub	sp, sp, #12
.LCFI46:
	str	r0, [sp, #4]
	str	r1, [sp]
	.loc 1 834 11
	ldr	r2, .L159
	ldr	r3, [sp, #4]
	str	r3, [r2]
	.loc 1 835 29
	ldr	r3, [sp]
	lsls	r3, r3, #11
	ldr	r2, .L159+4
	umull	r2, r3, r2, r3
	lsrs	r0, r3, #6
	.loc 1 835 13
	movs	r3, #0
	ldr	r2, .L159+8
	movs	r1, #1
	bl	MsTimerSetRel
	mov	r3, r0
	mov	r2, r3
	.loc 1 835 10
	ldr	r3, .L159+12
	strb	r2, [r3]
	.loc 1 836 3
	movs	r0, #0
	bl	SignalNCB
	.loc 1 837 1
	nop
	add	sp, sp, #12
.LCFI47:
	@ sp needed
	ldr	pc, [sp], #4
.L160:
	.align	2
.L159:
	.word	downcnt
	.word	274877907
	.word	SignalNCB
	.word	cnttmr
.LFE350:
	.size	UserPinSignalN, .-UserPinSignalN
	.section .rodata
	.align	2
.LC75:
	.ascii	"Usage: 'Toggle <steps> <period> \012\000"
	.align	2
.LC76:
	.ascii	"%d Steps, Period %d\012\000"
	.section	.text.Test_Toggle,"ax",%progbits
	.align	1
	.syntax unified
	.thumb
	.thumb_func
	.fpu fpv5-d16
	.type	Test_Toggle, %function
Test_Toggle:
.LFB351:
	.loc 1 840 1
	@ args = 0, pretend = 0, frame = 32
	@ frame_needed = 0, uses_anonymous_args = 0
	push	{lr}
.LCFI48:
	sub	sp, sp, #36
.LCFI49:
	str	r0, [sp, #12]
	str	r1, [sp, #8]
	str	r2, [sp, #4]
	.loc 1 845 8
	bl	CMD_argc
	mov	r3, r0
	.loc 1 845 6
	cmp	r3, #1
	bhi	.L162
	.loc 1 846 7
	ldr	r0, .L165
	bl	printf
	.loc 1 847 14
	movs	r3, #0
	b	.L164
.L162:
	.loc 1 850 3
	add	r2, sp, #16
	add	r3, sp, #20
	mov	r1, r2
	mov	r0, r3
	bl	CMD_get_one_word
	.loc 1 851 17
	ldr	r3, [sp, #20]
	ldr	r2, [sp, #16]
	mov	r1, r2
	mov	r0, r3
	bl	CMD_to_number
	str	r0, [sp, #28]
	.loc 1 853 3
	add	r2, sp, #16
	add	r3, sp, #20
	mov	r1, r2
	mov	r0, r3
	bl	CMD_get_one_word
	.loc 1 854 17
	ldr	r3, [sp, #20]
	ldr	r2, [sp, #16]
	mov	r1, r2
	mov	r0, r3
	bl	CMD_to_number
	str	r0, [sp, #24]
	.loc 1 856 3
	ldr	r2, [sp, #24]
	ldr	r1, [sp, #28]
	ldr	r0, .L165+4
	bl	printf
	.loc 1 857 3
	ldr	r1, [sp, #24]
	ldr	r0, [sp, #28]
	bl	UserPinSignalN
	.loc 1 858 10
	movs	r3, #1
.L164:
	.loc 1 859 1 discriminator 1
	mov	r0, r3
	add	sp, sp, #36
.LCFI50:
	@ sp needed
	ldr	pc, [sp], #4
.L166:
	.align	2
.L165:
	.word	.LC75
	.word	.LC76
.LFE351:
	.size	Test_Toggle, .-Test_Toggle
	.section	.rodata.usart2,"a"
	.align	2
	.type	usart2, %object
	.size	usart2, 44
usart2:
	.ascii	"The quick brown fox jumps over the lazy dog\000"
	.section .rodata
	.align	2
.LC77:
	.ascii	"Usage: 'Write config[31] <x> times\012\000"
	.align	2
.LC78:
	.ascii	"Writing %d times to config[31]\012\000"
	.align	2
.LC79:
	.ascii	"Test_Menu: command not implemented\000"
	.section	.text.Test_Menu,"ax",%progbits
	.align	1
	.syntax unified
	.thumb
	.thumb_func
	.fpu fpv5-d16
	.type	Test_Menu, %function
Test_Menu:
.LFB352:
	.loc 1 886 1
	@ args = 0, pretend = 0, frame = 32
	@ frame_needed = 0, uses_anonymous_args = 0
	push	{lr}
.LCFI51:
	sub	sp, sp, #36
.LCFI52:
	str	r0, [sp, #12]
	str	r1, [sp, #8]
	str	r2, [sp, #4]
	.loc 1 893 10
	ldr	r3, [sp, #4]
	.loc 1 893 3
	cmp	r3, #3
	bne	.L168
	.loc 1 912 14
	bl	CMD_argc
	mov	r3, r0
	.loc 1 912 12
	cmp	r3, #0
	bne	.L169
	.loc 1 913 13
	ldr	r0, .L175
	bl	printf
	.loc 1 914 20
	movs	r3, #0
	b	.L174
.L169:
	.loc 1 916 8
	add	r2, sp, #16
	add	r3, sp, #20
	mov	r1, r2
	mov	r0, r3
	bl	CMD_get_one_word
	.loc 1 917 18
	ldr	r3, [sp, #20]
	ldr	r2, [sp, #16]
	mov	r1, r2
	mov	r0, r3
	bl	CMD_to_number
	mov	r3, r0
	.loc 1 917 16
	strb	r3, [sp, #27]
	.loc 1 918 8
	ldrb	r3, [sp, #27]	@ zero_extendqisi2
	mov	r1, r3
	ldr	r0, .L175+4
	bl	printf
.LBB5:
	.loc 1 919 23
	movs	r3, #0
	str	r3, [sp, #28]
	.loc 1 919 8
	b	.L171
.L172:
	.loc 1 920 13 discriminator 3
	ldr	r3, [sp, #28]
	uxtb	r3, r3
	mov	r1, r3
	movs	r0, #31
	bl	eeprom_update_config_byte
	.loc 1 919 44 discriminator 3
	ldr	r3, [sp, #28]
	adds	r3, r3, #1
	str	r3, [sp, #28]
.L171:
	.loc 1 919 32 discriminator 1
	ldrb	r3, [sp, #27]	@ zero_extendqisi2
	.loc 1 919 8 discriminator 1
	ldr	r2, [sp, #28]
	cmp	r2, r3
	bcc	.L172
.LBE5:
	.loc 1 921 8
	b	.L173
.L168:
	.loc 1 942 7
	ldr	r0, .L175+8
	bl	puts
.L173:
	.loc 1 945 10
	movs	r3, #1
.L174:
	.loc 1 947 1 discriminator 1
	mov	r0, r3
	add	sp, sp, #36
.LCFI53:
	@ sp needed
	ldr	pc, [sp], #4
.L176:
	.align	2
.L175:
	.word	.LC77
	.word	.LC78
	.word	.LC79
.LFE352:
	.size	Test_Menu, .-Test_Menu
	.section .rodata
	.align	2
.LC80:
	.ascii	"%d ticks during wait\012\000"
	.section	.text.TmrExpired,"ax",%progbits
	.align	1
	.syntax unified
	.thumb
	.thumb_func
	.fpu fpv5-d16
	.type	TmrExpired, %function
TmrExpired:
.LFB353:
	.loc 1 952 1
	@ args = 0, pretend = 0, frame = 16
	@ frame_needed = 0, uses_anonymous_args = 0
	push	{lr}
.LCFI54:
	sub	sp, sp, #20
.LCFI55:
	str	r0, [sp, #4]
	.loc 1 953 25
	bl	HAL_GetTick
	mov	r2, r0
	.loc 1 953 14
	ldr	r3, [sp, #4]
	subs	r3, r2, r3
	str	r3, [sp, #12]
	.loc 1 954 5
	ldr	r1, [sp, #12]
	ldr	r0, .L178
	bl	printf
	.loc 1 955 1
	nop
	add	sp, sp, #20
.LCFI56:
	@ sp needed
	ldr	pc, [sp], #4
.L179:
	.align	2
.L178:
	.word	.LC80
.LFE353:
	.size	TmrExpired, .-TmrExpired
	.section .rodata
	.align	2
.LC81:
	.ascii	"Usage: 'SysTickTest <n> : Wait <n> seconds \012\000"
	.align	2
.LC82:
	.ascii	"Cannot allocate timer\000"
	.align	2
.LC83:
	.ascii	"Waiting %d seconds...\012\000"
	.align	2
.LC84:
	.ascii	"System_Menu: command not implemented\000"
	.section	.text.System_Menu,"ax",%progbits
	.align	1
	.syntax unified
	.thumb
	.thumb_func
	.fpu fpv5-d16
	.type	System_Menu, %function
System_Menu:
.LFB354:
	.loc 1 965 1
	@ args = 0, pretend = 0, frame = 32
	@ frame_needed = 0, uses_anonymous_args = 0
	push	{lr}
.LCFI57:
	sub	sp, sp, #36
.LCFI58:
	str	r0, [sp, #12]
	str	r1, [sp, #8]
	str	r2, [sp, #4]
	.loc 1 971 10
	ldr	r3, [sp, #4]
	.loc 1 971 3
	cmp	r3, #2
	beq	.L181
	cmp	r3, #2
	bhi	.L182
	cmp	r3, #0
	beq	.L183
	cmp	r3, #1
	beq	.L184
	b	.L182
.L183:
	.loc 1 973 9
	bl	TaskDumpList
	.loc 1 974 9
	b	.L185
.L184:
	.loc 1 976 9
	bl	PeriodicDumpList
	.loc 1 977 9
	b	.L185
.L181:
	.loc 1 979 14
	bl	CMD_argc
	mov	r3, r0
	.loc 1 979 12
	cmp	r3, #0
	bne	.L186
	.loc 1 980 13
	ldr	r0, .L191
	bl	printf
	.loc 1 981 20
	movs	r3, #0
	b	.L190
.L186:
	.loc 1 983 9
	add	r2, sp, #20
	add	r3, sp, #24
	mov	r1, r2
	mov	r0, r3
	bl	CMD_get_one_word
	.loc 1 984 15
	ldr	r3, [sp, #24]
	ldr	r2, [sp, #20]
	mov	r1, r2
	mov	r0, r3
	bl	CMD_to_number
	str	r0, [sp, #28]
	.loc 1 985 14
	bl	HAL_GetTick
	mov	r3, r0
	ldr	r2, .L191+4
	movs	r1, #0
	ldr	r0, [sp, #28]
	bl	SecTimerSetRel
	mov	r3, r0
	.loc 1 985 12
	cmp	r3, #-1
	bne	.L188
	.loc 1 986 13
	ldr	r0, .L191+8
	bl	puts
	.loc 1 990 9
	b	.L185
.L188:
	.loc 1 988 13
	ldr	r1, [sp, #28]
	ldr	r0, .L191+12
	bl	printf
	.loc 1 990 9
	b	.L185
.L182:
	.loc 1 1005 7
	ldr	r0, .L191+16
	bl	puts
.L185:
	.loc 1 1008 10
	movs	r3, #1
.L190:
	.loc 1 1010 1 discriminator 1
	mov	r0, r3
	add	sp, sp, #36
.LCFI59:
	@ sp needed
	ldr	pc, [sp], #4
.L192:
	.align	2
.L191:
	.word	.LC81
	.word	TmrExpired
	.word	.LC82
	.word	.LC83
	.word	.LC84
.LFE354:
	.size	System_Menu, .-System_Menu
	.section .rodata
	.align	2
.LC85:
	.ascii	"T&S\000"
	.section	.text.pmtTest,"ax",%progbits
	.align	1
	.syntax unified
	.thumb
	.thumb_func
	.fpu fpv5-d16
	.type	pmtTest, %function
pmtTest:
.LFB355:
	.loc 1 1014 1
	@ args = 0, pretend = 0, frame = 0
	@ frame_needed = 0, uses_anonymous_args = 0
	@ link register save eliminated.
	.loc 1 1015 10
	ldr	r3, .L195
	.loc 1 1016 1
	mov	r0, r3
	bx	lr
.L196:
	.align	2
.L195:
	.word	.LC85
.LFE355:
	.size	pmtTest, .-pmtTest
	.section .rodata
	.align	2
.LC86:
	.ascii	"Reset\000"
	.align	2
.LC87:
	.ascii	"Perform a watchdog reset\000"
	.align	2
.LC88:
	.ascii	"Sleep\000"
	.align	2
.LC89:
	.ascii	"Allow/Inhibit sleep mode\000"
	.align	2
.LC90:
	.ascii	"Task list\000"
	.align	2
.LC91:
	.ascii	"Show task list\000"
	.align	2
.LC92:
	.ascii	"Periodic lists\000"
	.align	2
.LC93:
	.ascii	"Show periodic lists\000"
	.align	2
.LC94:
	.ascii	"TmrAbs\000"
	.align	2
.LC95:
	.ascii	"Set Abs Timer\000"
	.align	2
.LC96:
	.ascii	"TmrRel\000"
	.align	2
.LC97:
	.ascii	"Set Rel Timer\000"
	.align	2
.LC98:
	.ascii	"TmrDel\000"
	.align	2
.LC99:
	.ascii	"Delete priodic timer\000"
	.align	2
.LC100:
	.ascii	"Multi Tmr\000"
	.align	2
.LC101:
	.ascii	"Lots of timers\000"
	.align	2
.LC102:
	.ascii	"Kill Tmr\000"
	.align	2
.LC103:
	.ascii	"Generates Error\000"
	.align	2
.LC104:
	.ascii	"Toggle\000"
	.align	2
.LC105:
	.ascii	"Toggle UserLed2\000"
	.align	2
.LC106:
	.ascii	"SysTickTest\000"
	.align	2
.LC107:
	.ascii	"Check Systick\000"
	.align	2
.LC108:
	.ascii	"Write config \000"
	.align	2
.LC109:
	.ascii	"Write config[31] x times\000"
	.section	.rodata.cmdTest,"a"
	.align	2
	.type	cmdTest, %object
	.size	cmdTest, 240
cmdTest:
	.word	.LC86
	.byte	0
	.space	3
	.word	Test_WD_reset
	.word	0
	.word	.LC87
	.word	.LC88
	.byte	0
	.space	3
	.word	Test_Sleep
	.word	0
	.word	.LC89
	.word	.LC90
	.byte	0
	.space	3
	.word	System_Menu
	.word	0
	.word	.LC91
	.word	.LC92
	.byte	0
	.space	3
	.word	System_Menu
	.word	1
	.word	.LC93
	.word	.LC94
	.byte	0
	.space	3
	.word	Test_TmrAbs
	.word	0
	.word	.LC95
	.word	.LC96
	.byte	0
	.space	3
	.word	Test_TmrRel
	.word	0
	.word	.LC97
	.word	.LC98
	.byte	0
	.space	3
	.word	Test_TmrDel
	.word	0
	.word	.LC99
	.word	.LC100
	.byte	0
	.space	3
	.word	Test_TmrMulti
	.word	0
	.word	.LC101
	.word	.LC102
	.byte	0
	.space	3
	.word	Test_TmrKill
	.word	0
	.word	.LC103
	.word	.LC104
	.byte	0
	.space	3
	.word	Test_Toggle
	.word	0
	.word	.LC105
	.word	.LC106
	.byte	0
	.space	3
	.word	System_Menu
	.word	2
	.word	.LC107
	.word	.LC108
	.byte	0
	.space	3
	.word	Test_Menu
	.word	3
	.word	.LC109
	.global	mdlTest
	.section	.rodata.mdlTest,"a"
	.align	2
	.type	mdlTest, %object
	.size	mdlTest, 12
mdlTest:
	.word	pmtTest
	.word	cmdTest
	.word	12
	.section .rodata
	.align	2
.LC110:
	.ascii	"Vdda = %dmV\012\000"
	.align	2
.LC111:
	.ascii	"Chip Temp = %d\260C\012\000"
	.align	2
.LC112:
	.ascii	"Usage: 'ADC channel <num> \012\000"
	.align	2
.LC113:
	.ascii	"Measure group\000"
	.align	2
.LC114:
	.ascii	"Refint channel disabled\000"
	.section	.text.ADC_Menu,"ax",%progbits
	.align	1
	.syntax unified
	.thumb
	.thumb_func
	.fpu fpv5-d16
	.type	ADC_Menu, %function
ADC_Menu:
.LFB356:
	.loc 1 1058 5
	@ args = 0, pretend = 0, frame = 32
	@ frame_needed = 0, uses_anonymous_args = 0
	push	{lr}
.LCFI60:
	sub	sp, sp, #36
.LCFI61:
	str	r0, [sp, #12]
	str	r1, [sp, #8]
	str	r2, [sp, #4]
	.loc 1 1065 14
	ldr	r3, [sp, #4]
	cmp	r3, #6
	bhi	.L198
	adr	r2, .L200
	ldr	pc, [r2, r3, lsl #2]
	.p2align 2
.L200:
	.word	.L206+1
	.word	.L205+1
	.word	.L204+1
	.word	.L203+1
	.word	.L202+1
	.word	.L201+1
	.word	.L199+1
	.p2align 1
.L206:
	.loc 1 1067 13
	ldr	r0, .L211
	bl	ADC_Calibrate
.L205:
	.loc 1 1070 13
	ldr	r0, .L211
	bl	ADC_MeasureVdda
	.loc 1 1071 47
	ldr	r3, .L211+4
	ldrh	r3, [r3, #110]
	.loc 1 1071 13
	mov	r1, r3
	ldr	r0, .L211+8
	bl	printf
	.loc 1 1072 13
	b	.L207
.L204:
	.loc 1 1074 13
	ldr	r0, .L211
	bl	ADC_MeasureChipTemp
	.loc 1 1075 52
	ldr	r3, .L211+4
	ldrh	r3, [r3, #108]
	.loc 1 1075 13
	mov	r1, r3
	ldr	r0, .L211+12
	bl	printf
	.loc 1 1076 13
	b	.L207
.L203:
	.loc 1 1078 18
	bl	CMD_argc
	mov	r3, r0
	.loc 1 1078 16
	cmp	r3, #0
	bne	.L208
	.loc 1 1079 15
	ldr	r0, .L211+16
	bl	printf
	.loc 1 1080 22
	movs	r3, #0
	b	.L210
.L208:
	.loc 1 1082 13
	add	r2, sp, #20
	add	r3, sp, #24
	mov	r1, r2
	mov	r0, r3
	bl	CMD_get_one_word
	.loc 1 1083 18
	ldr	r3, [sp, #24]
	ldr	r2, [sp, #20]
	mov	r1, r2
	mov	r0, r3
	bl	CMD_to_number
	mov	r3, r0
	.loc 1 1083 16
	strb	r3, [sp, #31]
	.loc 1 1084 13
	ldrb	r3, [sp, #31]	@ zero_extendqisi2
	mov	r1, r3
	ldr	r0, .L211
	bl	ADC_MeasureChannel
	.loc 1 1085 13
	b	.L207
.L202:
	.loc 1 1087 13
	ldr	r0, .L211+20
	bl	puts
	.loc 1 1088 13
	ldr	r0, .L211
	bl	ADC_SetupGroup
	.loc 1 1089 13
	ldr	r0, .L211
	bl	ADC_MeasureGroup
	.loc 1 1090 13
	b	.L207
.L201:
	.loc 1 1092 13
	ldr	r0, .L211
	bl	ADC_DisableRefintCh
	.loc 1 1093 13
	ldr	r0, .L211+24
	bl	puts
	.loc 1 1094 13
	b	.L207
.L199:
	.loc 1 1096 13
	ldr	r0, .L211
	bl	ADC_DisableAllInternalCh
	.loc 1 1097 13
	ldr	r0, .L211+24
	bl	puts
	.loc 1 1098 13
	b	.L207
.L198:
	.loc 1 1100 11
	ldr	r0, .L211+28
	bl	puts
.L207:
	.loc 1 1103 14
	movs	r3, #1
.L210:
	.loc 1 1104 5 discriminator 1
	mov	r0, r3
	add	sp, sp, #36
.LCFI62:
	@ sp needed
	ldr	pc, [sp], #4
.L212:
	.align	2
.L211:
	.word	HW_ADC3
	.word	ADC3Handle
	.word	.LC110
	.word	.LC111
	.word	.LC112
	.word	.LC113
	.word	.LC114
	.word	.LC79
.LFE356:
	.size	ADC_Menu, .-ADC_Menu
	.section .rodata
	.align	2
.LC115:
	.ascii	"ADC\000"
	.section	.text.pmtADC,"ax",%progbits
	.align	1
	.syntax unified
	.thumb
	.thumb_func
	.fpu fpv5-d16
	.type	pmtADC, %function
pmtADC:
.LFB357:
	.loc 1 1107 5
	@ args = 0, pretend = 0, frame = 0
	@ frame_needed = 0, uses_anonymous_args = 0
	@ link register save eliminated.
	.loc 1 1108 14
	ldr	r3, .L215
	.loc 1 1109 5
	mov	r0, r3
	bx	lr
.L216:
	.align	2
.L215:
	.word	.LC115
.LFE357:
	.size	pmtADC, .-pmtADC
	.section .rodata
	.align	2
.LC116:
	.ascii	"Measure Vdda+Calibrate\000"
	.align	2
.LC117:
	.ascii	"Calibrate ADC & Measure Vdda\000"
	.align	2
.LC118:
	.ascii	"Measure Vdda\000"
	.align	2
.LC119:
	.ascii	"Measure Vdda w/o Calibration\000"
	.align	2
.LC120:
	.ascii	"Measure Temp\000"
	.align	2
.LC121:
	.ascii	"Measure Chip temperature\000"
	.align	2
.LC122:
	.ascii	"Measure channel\000"
	.align	2
.LC123:
	.ascii	"Measure channel <n>\000"
	.align	2
.LC124:
	.ascii	"Measure whole sequence\000"
	.align	2
.LC125:
	.ascii	"Refint disable\000"
	.align	2
.LC126:
	.ascii	"Disable Refint ADC channel\000"
	.align	2
.LC127:
	.ascii	"All int. Ch. Disable\000"
	.align	2
.LC128:
	.ascii	"Disable all internal ADC channels\000"
	.section	.rodata.cmdADC,"a"
	.align	2
	.type	cmdADC, %object
	.size	cmdADC, 140
cmdADC:
	.word	.LC116
	.byte	0
	.space	3
	.word	ADC_Menu
	.word	0
	.word	.LC117
	.word	.LC118
	.byte	0
	.space	3
	.word	ADC_Menu
	.word	1
	.word	.LC119
	.word	.LC120
	.byte	0
	.space	3
	.word	ADC_Menu
	.word	2
	.word	.LC121
	.word	.LC122
	.byte	0
	.space	3
	.word	ADC_Menu
	.word	3
	.word	.LC123
	.word	.LC113
	.byte	0
	.space	3
	.word	ADC_Menu
	.word	4
	.word	.LC124
	.word	.LC125
	.byte	0
	.space	3
	.word	ADC_Menu
	.word	5
	.word	.LC126
	.word	.LC127
	.byte	0
	.space	3
	.word	ADC_Menu
	.word	6
	.word	.LC128
	.global	mdlADC
	.section	.rodata.mdlADC,"a"
	.align	2
	.type	mdlADC, %object
	.size	mdlADC, 12
mdlADC:
	.word	pmtADC
	.word	cmdADC
	.word	7
	.section	.bss.PageBuffer,"aw",%nobits
	.align	2
	.type	PageBuffer, %object
	.size	PageBuffer, 10240
PageBuffer:
	.space	10240
	.section .rodata
	.align	2
.LC129:
	.ascii	"%s:\000"
	.align	2
.LC130:
	.ascii	"read terminated ok\012\000"
	.section	.text.rddoneCB,"ax",%progbits
	.align	1
	.global	rddoneCB
	.syntax unified
	.thumb
	.thumb_func
	.fpu fpv5-d16
	.type	rddoneCB, %function
rddoneCB:
.LFB358:
	.loc 1 1334 5
	@ args = 0, pretend = 0, frame = 8
	@ frame_needed = 0, uses_anonymous_args = 0
	push	{lr}
.LCFI63:
	sub	sp, sp, #12
.LCFI64:
	str	r0, [sp, #4]
	.loc 1 1336 9
	bl	ProfilerGetTS
	mov	r3, r0
	mov	r1, r3
	ldr	r0, .L218
	bl	printf
	ldr	r0, .L218+4
	bl	printf
	.loc 1 1337 5
	nop
	add	sp, sp, #12
.LCFI65:
	@ sp needed
	ldr	pc, [sp], #4
.L219:
	.align	2
.L218:
	.word	.LC129
	.word	.LC130
.LFE358:
	.size	rddoneCB, .-rddoneCB
	.section .rodata
	.align	2
.LC131:
	.ascii	"write/erase terminated ok\012\000"
	.section	.text.wrdoneCB,"ax",%progbits
	.align	1
	.global	wrdoneCB
	.syntax unified
	.thumb
	.thumb_func
	.fpu fpv5-d16
	.type	wrdoneCB, %function
wrdoneCB:
.LFB359:
	.loc 1 1339 5
	@ args = 0, pretend = 0, frame = 8
	@ frame_needed = 0, uses_anonymous_args = 0
	push	{lr}
.LCFI66:
	sub	sp, sp, #12
.LCFI67:
	str	r0, [sp, #4]
	.loc 1 1341 9
	bl	ProfilerGetTS
	mov	r3, r0
	mov	r1, r3
	ldr	r0, .L221
	bl	printf
	ldr	r0, .L221+4
	bl	printf
	.loc 1 1342 5
	nop
	add	sp, sp, #12
.LCFI68:
	@ sp needed
	ldr	pc, [sp], #4
.L222:
	.align	2
.L221:
	.word	.LC129
	.word	.LC131
.LFE359:
	.size	wrdoneCB, .-wrdoneCB
	.section .rodata
	.align	2
.LC132:
	.ascii	"Async Op terminated with error\012\000"
	.section	.text.errorCB,"ax",%progbits
	.align	1
	.global	errorCB
	.syntax unified
	.thumb
	.thumb_func
	.fpu fpv5-d16
	.type	errorCB, %function
errorCB:
.LFB360:
	.loc 1 1344 5
	@ args = 0, pretend = 0, frame = 8
	@ frame_needed = 0, uses_anonymous_args = 0
	push	{lr}
.LCFI69:
	sub	sp, sp, #12
.LCFI70:
	str	r0, [sp, #4]
	.loc 1 1346 9
	bl	ProfilerGetTS
	mov	r3, r0
	mov	r1, r3
	ldr	r0, .L224
	bl	printf
	ldr	r0, .L224+4
	bl	printf
	.loc 1 1347 5
	nop
	add	sp, sp, #12
.LCFI71:
	@ sp needed
	ldr	pc, [sp], #4
.L225:
	.align	2
.L224:
	.word	.LC129
	.word	.LC132
.LFE360:
	.size	errorCB, .-errorCB
	.section .rodata
	.align	2
.LC133:
	.ascii	"Flash Size= ...... %d kByte\012\000"
	.align	2
.LC134:
	.ascii	"Erase sector size= %d Byte\012\000"
	.align	2
.LC135:
	.ascii	"   sector count= . %d\012\000"
	.align	2
.LC136:
	.ascii	"Write page size= . %d Byte\012\000"
	.align	2
.LC137:
	.ascii	"   page count= ... %d\012\000"
	.align	2
.LC138:
	.ascii	"pages per sector=  %d\012\000"
	.align	2
.LC139:
	.ascii	"Usage: 'Erase <sector#> [<cnt>] - erase sector  +<c"
	.ascii	"nt> following\012\000"
	.align	2
.LC140:
	.ascii	"Erase sector %d (startaddr=0x%08x) plus %d follwing"
	.ascii	" sectors \000"
	.align	2
.LC141:
	.ascii	"ok\000"
	.align	2
.LC142:
	.ascii	"fail\000"
	.align	2
.LC143:
	.ascii	"%s\012\000"
	.align	2
.LC144:
	.ascii	"Internal page size has to be at least %d- aborting "
	.ascii	"test\012\000"
	.align	2
.LC145:
	.ascii	"Usage: 'Write <page#> [<cnt>] - write page  +<cnt> "
	.ascii	"following\012\000"
	.align	2
.LC146:
	.ascii	"Write page %d (startaddr=0x%08x) - \000"
	.align	2
.LC147:
	.ascii	"Usage: 'Compare <page#> [<cnt>] - write page  +<cnt"
	.ascii	"> following\012\000"
	.align	2
.LC148:
	.ascii	"compare page %d (startaddr=0x%08x) - Read \000"
	.align	2
.LC149:
	.ascii	"Waiting for Async op to be done\000"
	.align	2
.LC150:
	.ascii	"Wait terminated after %d ticks\012\000"
	.align	2
.LC151:
	.ascii	"Compare failed Page offset 0x%02x: read 0x%02x, exp"
	.ascii	"ected 0x%02x\012\000"
	.align	2
.LC152:
	.ascii	"Usage: 'Dump <page#> [<cnt>] - write page  +<cnt> f"
	.ascii	"ollowing\012\000"
	.align	2
.LC153:
	.ascii	"MemoryMapped\000"
	.align	2
.LC154:
	.ascii	"QSPI\000"
	.align	2
.LC155:
	.ascii	"Read page %d (startaddr=0x%08x) in %s mode - \000"
	.align	2
.LC156:
	.ascii	"0x%08x\000"
	.align	2
.LC157:
	.ascii	" %02x\000"
	.align	2
.LC158:
	.ascii	"\000"
	.align	2
.LC159:
	.ascii	"Enable memory mapped mode- \000"
	.align	2
.LC160:
	.ascii	"Abort operation - \000"
	.align	2
.LC161:
	.ascii	"Read Status\000"
	.align	2
.LC162:
	.ascii	"Enter power down - \000"
	.align	2
.LC163:
	.ascii	"Exit power down - \000"
	.align	2
.LC164:
	.ascii	"Usage: 'Write <addr> <size> - write <size> bytes, b"
	.ascii	"eginning @ <addr>\012\000"
	.align	2
.LC165:
	.ascii	"maximum size is %d\012\000"
	.align	2
.LC166:
	.ascii	"Write %d bytes from addr 0x%08x\012\000"
	.align	2
.LC167:
	.ascii	"Waiting for Async op to be done\012\000"
	.align	2
.LC168:
	.ascii	"Usage: Clk speed <n> - Set Qspi clk speed to <n> kH"
	.ascii	"z\012\000"
	.align	2
.LC169:
	.ascii	"Set Qspi Clock speed to %d MHz\000"
	.align	2
.LC170:
	.ascii	"QSPI chip reset - \000"
	.align	2
.LC171:
	.ascii	"PM_Menu: command not implemented\000"
	.section	.text.QSPI_Menu,"ax",%progbits
	.align	1
	.syntax unified
	.thumb
	.thumb_func
	.fpu fpv5-d16
	.type	QSPI_Menu, %function
QSPI_Menu:
.LFB361:
	.loc 1 1350 5
	@ args = 0, pretend = 0, frame = 56
	@ frame_needed = 0, uses_anonymous_args = 0
	push	{lr}
.LCFI72:
	sub	sp, sp, #60
.LCFI73:
	str	r0, [sp, #12]
	str	r1, [sp, #8]
	str	r2, [sp, #4]
	.loc 1 1361 7
	ldr	r3, .L310
	ldr	r2, .L310+4
	ldr	r1, .L310+8
	ldr	r0, .L310+12
	bl	QSpi_SetAsyncCallbacks
	.loc 1 1364 14
	ldr	r3, [sp, #4]
	cmp	r3, #13
	bhi	.L227
	adr	r2, .L229
	ldr	pc, [r2, r3, lsl #2]
	.p2align 2
.L229:
	.word	.L241+1
	.word	.L240+1
	.word	.L239+1
	.word	.L238+1
	.word	.L237+1
	.word	.L236+1
	.word	.L235+1
	.word	.L234+1
	.word	.L233+1
	.word	.L232+1
	.word	.L231+1
	.word	.L231+1
	.word	.L230+1
	.word	.L228+1
	.p2align 1
.L241:
	.loc 1 1366 73
	ldr	r3, .L310+12
	ldr	r3, [r3, #76]
	.loc 1 1366 13
	lsrs	r3, r3, #10
	mov	r1, r3
	ldr	r0, .L310+16
	bl	printf
	.loc 1 1367 13
	ldr	r3, .L310+12
	ldr	r3, [r3, #84]
	mov	r1, r3
	ldr	r0, .L310+20
	bl	printf
	.loc 1 1368 13
	ldr	r3, .L310+12
	ldr	r3, [r3, #92]
	mov	r1, r3
	ldr	r0, .L310+24
	bl	printf
	.loc 1 1369 13
	ldr	r3, .L310+12
	ldr	r3, [r3, #80]
	mov	r1, r3
	ldr	r0, .L310+28
	bl	printf
	.loc 1 1370 13
	ldr	r3, .L310+12
	ldr	r3, [r3, #88]
	mov	r1, r3
	ldr	r0, .L310+32
	bl	printf
	.loc 1 1371 67
	ldr	r3, .L310+12
	ldr	r2, [r3, #84]
	.loc 1 1371 104
	ldr	r3, .L310+12
	ldr	r3, [r3, #80]
	.loc 1 1371 13
	udiv	r3, r2, r3
	mov	r1, r3
	ldr	r0, .L310+36
	bl	printf
	.loc 1 1372 13
	b	.L242
.L240:
	.loc 1 1374 18
	bl	CMD_argc
	mov	r3, r0
	.loc 1 1374 16
	cmp	r3, #0
	bne	.L243
	.loc 1 1375 15
	ldr	r0, .L310+40
	bl	printf
	.loc 1 1376 22
	movs	r3, #0
	b	.L309
.L243:
	.loc 1 1378 13
	add	r2, sp, #20
	add	r3, sp, #24
	mov	r1, r2
	mov	r0, r3
	bl	CMD_get_one_word
	.loc 1 1379 19
	ldr	r3, [sp, #24]
	ldr	r2, [sp, #20]
	mov	r1, r2
	mov	r0, r3
	bl	CMD_to_number
	str	r0, [sp, #32]
	.loc 1 1380 18
	bl	CMD_argc
	mov	r3, r0
	.loc 1 1380 16
	cmp	r3, #0
	beq	.L245
	.loc 1 1381 17
	add	r2, sp, #20
	add	r3, sp, #24
	mov	r1, r2
	mov	r0, r3
	bl	CMD_get_one_word
	.loc 1 1382 23
	ldr	r3, [sp, #24]
	ldr	r2, [sp, #20]
	mov	r1, r2
	mov	r0, r3
	bl	CMD_to_number
	str	r0, [sp, #52]
	b	.L246
.L245:
	.loc 1 1384 21
	movs	r3, #0
	str	r3, [sp, #52]
.L246:
	.loc 1 1386 41
	ldr	r3, .L310+12
	ldr	r2, [r3, #84]
	.loc 1 1386 18
	ldr	r3, [sp, #32]
	mul	r3, r2, r3
	str	r3, [sp, #48]
	.loc 1 1387 13
	ldr	r3, [sp, #52]
	ldr	r2, [sp, #48]
	ldr	r1, [sp, #32]
	ldr	r0, .L310+44
	bl	printf
	.loc 1 1388 19
	ldr	r3, [sp, #52]
	adds	r3, r3, #1
	mov	r2, r3
	ldr	r1, [sp, #48]
	ldr	r0, .L310+12
	bl	QSpi_EraseSectorWait
	str	r0, [sp, #36]
	.loc 1 1389 13
	ldr	r3, [sp, #36]
	cmp	r3, #0
	beq	.L247
	.loc 1 1389 13 is_stmt 0 discriminator 1
	ldr	r3, .L310+48
	b	.L248
.L247:
	.loc 1 1389 13 discriminator 2
	ldr	r3, .L310+52
.L248:
	.loc 1 1389 13 discriminator 4
	mov	r1, r3
	ldr	r0, .L310+56
	bl	printf
	.loc 1 1390 13 is_stmt 1 discriminator 4
	b	.L242
.L239:
	.loc 1 1392 38
	ldr	r3, .L310+12
	ldr	r3, [r3, #80]
	.loc 1 1392 16
	cmp	r3, #10240
	bls	.L249
	.loc 1 1393 17
	ldr	r3, .L310+12
	ldr	r3, [r3, #80]
	mov	r1, r3
	ldr	r0, .L310+60
	bl	printf
	.loc 1 1394 24
	movs	r3, #0
	b	.L309
.L249:
	.loc 1 1396 18
	bl	CMD_argc
	mov	r3, r0
	.loc 1 1396 16
	cmp	r3, #0
	bne	.L250
	.loc 1 1397 15
	ldr	r0, .L310+64
	bl	printf
	.loc 1 1398 22
	movs	r3, #0
	b	.L309
.L250:
	.loc 1 1400 13
	add	r2, sp, #20
	add	r3, sp, #24
	mov	r1, r2
	mov	r0, r3
	bl	CMD_get_one_word
	.loc 1 1401 19
	ldr	r3, [sp, #24]
	ldr	r2, [sp, #20]
	mov	r1, r2
	mov	r0, r3
	bl	CMD_to_number
	str	r0, [sp, #32]
	.loc 1 1402 18
	bl	CMD_argc
	mov	r3, r0
	.loc 1 1402 16
	cmp	r3, #0
	beq	.L251
	.loc 1 1403 17
	add	r2, sp, #20
	add	r3, sp, #24
	mov	r1, r2
	mov	r0, r3
	bl	CMD_get_one_word
	.loc 1 1404 23
	ldr	r3, [sp, #24]
	ldr	r2, [sp, #20]
	mov	r1, r2
	mov	r0, r3
	bl	CMD_to_number
	str	r0, [sp, #52]
	b	.L252
.L251:
	.loc 1 1406 21
	movs	r3, #0
	str	r3, [sp, #52]
.L252:
	.loc 1 1408 41
	ldr	r3, .L310+12
	ldr	r2, [r3, #80]
	.loc 1 1408 18
	ldr	r3, [sp, #32]
	mul	r3, r2, r3
	str	r3, [sp, #48]
	.loc 1 1409 20
	movs	r3, #0
	str	r3, [sp, #44]
	.loc 1 1409 13
	b	.L253
.L258:
	.loc 1 1410 26
	movs	r3, #0
	str	r3, [sp, #40]
	.loc 1 1410 17
	b	.L254
.L255:
	.loc 1 1411 36 discriminator 3
	ldr	r3, [sp, #44]
	uxtb	r2, r3
	ldr	r3, [sp, #40]
	uxtb	r3, r3
	add	r3, r3, r2
	uxtb	r1, r3
	.loc 1 1411 34 discriminator 3
	ldr	r2, .L310+68
	ldr	r3, [sp, #40]
	add	r3, r3, r2
	mov	r2, r1
	strb	r2, [r3]
	.loc 1 1410 71 discriminator 3
	ldr	r3, [sp, #40]
	adds	r3, r3, #1
	str	r3, [sp, #40]
.L254:
	.loc 1 1410 55 discriminator 1
	ldr	r3, .L310+12
	ldr	r3, [r3, #80]
	.loc 1 1410 17 discriminator 1
	ldr	r2, [sp, #40]
	cmp	r2, r3
	bcc	.L255
	.loc 1 1412 17
	ldr	r2, [sp, #32]
	ldr	r3, [sp, #44]
	add	r3, r3, r2
	ldr	r2, [sp, #48]
	mov	r1, r3
	ldr	r0, .L310+72
	bl	printf
	.loc 1 1413 23
	ldr	r3, .L310+12
	ldr	r3, [r3, #80]
	ldr	r2, [sp, #48]
	ldr	r1, .L310+68
	ldr	r0, .L310+12
	bl	QSpi_WriteWait
	str	r0, [sp, #36]
	.loc 1 1414 17
	ldr	r3, [sp, #36]
	cmp	r3, #0
	beq	.L256
	.loc 1 1414 17 is_stmt 0 discriminator 1
	ldr	r3, .L310+48
	b	.L257
.L256:
	.loc 1 1414 17 discriminator 2
	ldr	r3, .L310+52
.L257:
	.loc 1 1414 17 discriminator 4
	mov	r1, r3
	ldr	r0, .L310+56
	bl	printf
	.loc 1 1415 45 is_stmt 1 discriminator 4
	ldr	r3, .L310+12
	ldr	r3, [r3, #80]
	.loc 1 1415 22 discriminator 4
	ldr	r2, [sp, #48]
	add	r3, r3, r2
	str	r3, [sp, #48]
	.loc 1 1409 34 discriminator 4
	ldr	r3, [sp, #44]
	adds	r3, r3, #1
	str	r3, [sp, #44]
.L253:
	.loc 1 1409 13 discriminator 2
	ldr	r2, [sp, #44]
	ldr	r3, [sp, #52]
	cmp	r2, r3
	bls	.L258
	.loc 1 1417 13
	b	.L242
.L238:
	.loc 1 1419 38
	ldr	r3, .L310+12
	ldr	r3, [r3, #80]
	.loc 1 1419 16
	cmp	r3, #10240
	bls	.L259
	.loc 1 1420 17
	ldr	r3, .L310+12
	ldr	r3, [r3, #80]
	mov	r1, r3
	ldr	r0, .L310+60
	bl	printf
	.loc 1 1421 24
	movs	r3, #0
	b	.L309
.L259:
	.loc 1 1423 18
	bl	CMD_argc
	mov	r3, r0
	.loc 1 1423 16
	cmp	r3, #0
	bne	.L260
	.loc 1 1424 15
	ldr	r0, .L310+76
	bl	printf
	.loc 1 1425 22
	movs	r3, #0
	b	.L309
.L260:
	.loc 1 1427 13
	add	r2, sp, #20
	add	r3, sp, #24
	mov	r1, r2
	mov	r0, r3
	bl	CMD_get_one_word
	.loc 1 1428 19
	ldr	r3, [sp, #24]
	ldr	r2, [sp, #20]
	mov	r1, r2
	mov	r0, r3
	bl	CMD_to_number
	str	r0, [sp, #32]
	.loc 1 1429 18
	bl	CMD_argc
	mov	r3, r0
	.loc 1 1429 16
	cmp	r3, #0
	beq	.L261
	.loc 1 1430 17
	add	r2, sp, #20
	add	r3, sp, #24
	mov	r1, r2
	mov	r0, r3
	bl	CMD_get_one_word
	.loc 1 1431 23
	ldr	r3, [sp, #24]
	ldr	r2, [sp, #20]
	mov	r1, r2
	mov	r0, r3
	bl	CMD_to_number
	str	r0, [sp, #52]
	b	.L262
.L311:
	.align	2
.L310:
	.word	errorCB
	.word	wrdoneCB
	.word	rddoneCB
	.word	QSpi1Handle
	.word	.LC133
	.word	.LC134
	.word	.LC135
	.word	.LC136
	.word	.LC137
	.word	.LC138
	.word	.LC139
	.word	.LC140
	.word	.LC141
	.word	.LC142
	.word	.LC143
	.word	.LC144
	.word	.LC145
	.word	PageBuffer
	.word	.LC146
	.word	.LC147
.L261:
	.loc 1 1433 21
	movs	r3, #0
	str	r3, [sp, #52]
.L262:
	.loc 1 1435 41
	ldr	r3, .L312
	ldr	r2, [r3, #80]
	.loc 1 1435 18
	ldr	r3, [sp, #32]
	mul	r3, r2, r3
	str	r3, [sp, #48]
	.loc 1 1436 20
	movs	r3, #0
	str	r3, [sp, #44]
	.loc 1 1436 13
	b	.L263
.L271:
.LBB6:
	.loc 1 1437 17
	ldr	r2, [sp, #32]
	ldr	r3, [sp, #44]
	add	r3, r3, r2
	ldr	r2, [sp, #48]
	mov	r1, r3
	ldr	r0, .L312+4
	bl	printf
	.loc 1 1439 27
	ldr	r3, .L312
	ldr	r3, [r3, #80]
	ldr	r2, [sp, #48]
	ldr	r1, .L312+8
	ldr	r0, .L312
	bl	QSpi_ReadIT
	str	r0, [sp, #36]
	.loc 1 1443 17
	ldr	r3, [sp, #36]
	cmp	r3, #0
	beq	.L264
	.loc 1 1443 17 is_stmt 0 discriminator 1
	ldr	r3, .L312+12
	b	.L265
.L264:
	.loc 1 1443 17 discriminator 2
	ldr	r3, .L312+16
.L265:
	.loc 1 1443 17 discriminator 4
	mov	r1, r3
	ldr	r0, .L312+20
	bl	printf
	.loc 1 1445 21 is_stmt 1 discriminator 4
	ldr	r0, .L312+24
	bl	puts
	.loc 1 1446 38 discriminator 4
	bl	HAL_GetTick
	str	r0, [sp, #28]
	.loc 1 1447 27 discriminator 4
	nop
.L266:
	.loc 1 1447 40 discriminator 1
	ldr	r3, .L312
	ldr	r3, [r3, #120]
	.loc 1 1447 27 discriminator 1
	cmp	r3, #0
	bne	.L266
	.loc 1 1448 21
	bl	HAL_GetTick
	mov	r2, r0
	ldr	r3, [sp, #28]
	subs	r3, r2, r3
	mov	r1, r3
	ldr	r0, .L312+28
	bl	printf
	.loc 1 1450 26
	movs	r3, #0
	str	r3, [sp, #40]
	.loc 1 1450 17
	b	.L267
.L270:
	.loc 1 1451 36
	ldr	r2, .L312+8
	ldr	r3, [sp, #40]
	add	r3, r3, r2
	ldrb	r2, [r3]	@ zero_extendqisi2
	.loc 1 1451 43
	ldr	r3, [sp, #44]
	uxtb	r1, r3
	ldr	r3, [sp, #40]
	uxtb	r3, r3
	add	r3, r3, r1
	uxtb	r3, r3
	.loc 1 1451 24
	cmp	r2, r3
	beq	.L268
	.loc 1 1452 114
	ldr	r2, .L312+8
	ldr	r3, [sp, #40]
	add	r3, r3, r2
	ldrb	r3, [r3]	@ zero_extendqisi2
	.loc 1 1452 25
	mov	r1, r3
	ldr	r2, [sp, #44]
	ldr	r3, [sp, #40]
	add	r3, r3, r2
	mov	r2, r1
	ldr	r1, [sp, #40]
	ldr	r0, .L312+32
	bl	printf
	.loc 1 1453 25
	b	.L269
.L268:
	.loc 1 1450 71 discriminator 2
	ldr	r3, [sp, #40]
	adds	r3, r3, #1
	str	r3, [sp, #40]
.L267:
	.loc 1 1450 55 discriminator 1
	ldr	r3, .L312
	ldr	r3, [r3, #80]
	.loc 1 1450 17 discriminator 1
	ldr	r2, [sp, #40]
	cmp	r2, r3
	bcc	.L270
.L269:
	.loc 1 1456 45 discriminator 2
	ldr	r3, .L312
	ldr	r3, [r3, #80]
	.loc 1 1456 22 discriminator 2
	ldr	r2, [sp, #48]
	add	r3, r3, r2
	str	r3, [sp, #48]
.LBE6:
	.loc 1 1436 34 discriminator 2
	ldr	r3, [sp, #44]
	adds	r3, r3, #1
	str	r3, [sp, #44]
.L263:
	.loc 1 1436 13 discriminator 1
	ldr	r2, [sp, #44]
	ldr	r3, [sp, #52]
	cmp	r2, r3
	bls	.L271
	.loc 1 1458 13
	b	.L242
.L237:
	.loc 1 1460 38
	ldr	r3, .L312
	ldr	r3, [r3, #80]
	.loc 1 1460 16
	cmp	r3, #10240
	bls	.L272
	.loc 1 1461 17
	ldr	r3, .L312
	ldr	r3, [r3, #80]
	mov	r1, r3
	ldr	r0, .L312+36
	bl	printf
	.loc 1 1462 24
	movs	r3, #0
	b	.L309
.L272:
	.loc 1 1464 18
	bl	CMD_argc
	mov	r3, r0
	.loc 1 1464 16
	cmp	r3, #0
	bne	.L273
	.loc 1 1465 15
	ldr	r0, .L312+40
	bl	printf
	.loc 1 1466 22
	movs	r3, #0
	b	.L309
.L273:
	.loc 1 1468 13
	add	r2, sp, #20
	add	r3, sp, #24
	mov	r1, r2
	mov	r0, r3
	bl	CMD_get_one_word
	.loc 1 1469 19
	ldr	r3, [sp, #24]
	ldr	r2, [sp, #20]
	mov	r1, r2
	mov	r0, r3
	bl	CMD_to_number
	str	r0, [sp, #32]
	.loc 1 1470 18
	bl	CMD_argc
	mov	r3, r0
	.loc 1 1470 16
	cmp	r3, #0
	beq	.L274
	.loc 1 1471 17
	add	r2, sp, #20
	add	r3, sp, #24
	mov	r1, r2
	mov	r0, r3
	bl	CMD_get_one_word
	.loc 1 1472 23
	ldr	r3, [sp, #24]
	ldr	r2, [sp, #20]
	mov	r1, r2
	mov	r0, r3
	bl	CMD_to_number
	str	r0, [sp, #52]
	b	.L275
.L274:
	.loc 1 1474 21
	movs	r3, #0
	str	r3, [sp, #52]
.L275:
	.loc 1 1476 41
	ldr	r3, .L312
	ldr	r2, [r3, #80]
	.loc 1 1476 18
	ldr	r3, [sp, #32]
	mul	r3, r2, r3
	str	r3, [sp, #48]
	.loc 1 1481 20
	movs	r3, #0
	str	r3, [sp, #44]
	.loc 1 1481 13
	b	.L276
.L287:
	.loc 1 1482 17
	ldr	r2, [sp, #32]
	ldr	r3, [sp, #44]
	adds	r1, r2, r3
	.loc 1 1482 98
	ldr	r3, .L312
	ldr	r3, [r3, #124]
	.loc 1 1482 17
	cmp	r3, #0
	beq	.L277
	.loc 1 1482 17 is_stmt 0 discriminator 1
	ldr	r3, .L312+44
	b	.L278
.L277:
	.loc 1 1482 17 discriminator 2
	ldr	r3, .L312+48
.L278:
	.loc 1 1482 17 discriminator 4
	ldr	r2, [sp, #48]
	ldr	r0, .L312+52
	bl	printf
	.loc 1 1483 33 is_stmt 1 discriminator 4
	ldr	r3, .L312
	ldr	r3, [r3, #124]
	.loc 1 1483 20 discriminator 4
	cmp	r3, #0
	beq	.L279
	.loc 1 1484 58
	ldr	r3, [sp, #48]
	add	r3, r3, #-1879048192
	.loc 1 1484 21
	mov	r1, r3
	ldr	r3, .L312
	ldr	r3, [r3, #80]
	mov	r2, r3
	ldr	r0, .L312+8
	bl	memmove
	.loc 1 1490 25
	movs	r3, #1
	str	r3, [sp, #36]
	b	.L280
.L279:
	.loc 1 1492 27
	ldr	r3, .L312
	ldr	r3, [r3, #80]
	ldr	r2, [sp, #48]
	ldr	r1, .L312+8
	ldr	r0, .L312
	bl	QSpi_ReadWait
	str	r0, [sp, #36]
.L280:
	.loc 1 1494 17
	ldr	r3, [sp, #36]
	cmp	r3, #0
	beq	.L281
	.loc 1 1494 17 is_stmt 0 discriminator 1
	ldr	r3, .L312+12
	b	.L282
.L281:
	.loc 1 1494 17 discriminator 2
	ldr	r3, .L312+16
.L282:
	.loc 1 1494 17 discriminator 4
	mov	r1, r3
	ldr	r0, .L312+20
	bl	printf
	.loc 1 1495 26 is_stmt 1 discriminator 4
	movs	r3, #0
	str	r3, [sp, #40]
	.loc 1 1495 17 discriminator 4
	b	.L283
.L286:
	.loc 1 1496 28
	ldr	r3, [sp, #40]
	and	r3, r3, #15
	.loc 1 1496 24
	cmp	r3, #0
	bne	.L284
	.loc 1 1496 40 discriminator 1
	ldr	r2, [sp, #48]
	ldr	r3, [sp, #40]
	add	r3, r3, r2
	mov	r1, r3
	ldr	r0, .L312+56
	bl	printf
.L284:
	.loc 1 1497 47
	ldr	r2, .L312+8
	ldr	r3, [sp, #40]
	add	r3, r3, r2
	ldrb	r3, [r3]	@ zero_extendqisi2
	.loc 1 1497 21
	mov	r1, r3
	ldr	r0, .L312+60
	bl	printf
	.loc 1 1498 28
	ldr	r3, [sp, #40]
	adds	r3, r3, #1
	.loc 1 1498 32
	and	r3, r3, #15
	.loc 1 1498 24
	cmp	r3, #0
	bne	.L285
	.loc 1 1498 44 discriminator 1
	ldr	r0, .L312+64
	bl	puts
.L285:
	.loc 1 1495 71 discriminator 2
	ldr	r3, [sp, #40]
	adds	r3, r3, #1
	str	r3, [sp, #40]
.L283:
	.loc 1 1495 55 discriminator 1
	ldr	r3, .L312
	ldr	r3, [r3, #80]
	.loc 1 1495 17 discriminator 1
	ldr	r2, [sp, #40]
	cmp	r2, r3
	bcc	.L286
	.loc 1 1500 45 discriminator 2
	ldr	r3, .L312
	ldr	r3, [r3, #80]
	.loc 1 1500 22 discriminator 2
	ldr	r2, [sp, #48]
	add	r3, r3, r2
	str	r3, [sp, #48]
	.loc 1 1481 34 discriminator 2
	ldr	r3, [sp, #44]
	adds	r3, r3, #1
	str	r3, [sp, #44]
.L276:
	.loc 1 1481 13 discriminator 1
	ldr	r2, [sp, #44]
	ldr	r3, [sp, #52]
	cmp	r2, r3
	bls	.L287
	.loc 1 1502 13
	b	.L242
.L236:
	.loc 1 1504 13
	ldr	r0, .L312+68
	bl	printf
	.loc 1 1505 19
	ldr	r0, .L312
	bl	QSpi_EnableMemoryMappedMode
	str	r0, [sp, #36]
	.loc 1 1506 13
	ldr	r3, [sp, #36]
	cmp	r3, #0
	beq	.L288
	.loc 1 1506 13 is_stmt 0 discriminator 1
	ldr	r3, .L312+12
	b	.L289
.L288:
	.loc 1 1506 13 discriminator 2
	ldr	r3, .L312+16
.L289:
	.loc 1 1506 13 discriminator 4
	mov	r1, r3
	ldr	r0, .L312+20
	bl	printf
	.loc 1 1507 13 is_stmt 1 discriminator 4
	b	.L242
.L235:
	.loc 1 1509 13
	ldr	r0, .L312+72
	bl	printf
	.loc 1 1510 19
	ldr	r0, .L312
	bl	QSpi_Abort
	str	r0, [sp, #36]
	.loc 1 1511 13
	ldr	r3, [sp, #36]
	cmp	r3, #0
	beq	.L290
	.loc 1 1511 13 is_stmt 0 discriminator 1
	ldr	r3, .L312+12
	b	.L291
.L290:
	.loc 1 1511 13 discriminator 2
	ldr	r3, .L312+16
.L291:
	.loc 1 1511 13 discriminator 4
	mov	r1, r3
	ldr	r0, .L312+20
	bl	printf
	.loc 1 1512 13 is_stmt 1 discriminator 4
	b	.L242
.L234:
	.loc 1 1514 13
	ldr	r0, .L312+76
	bl	printf
	.loc 1 1515 13
	ldr	r0, .L312
	bl	QSpi_DumpStatus
	.loc 1 1516 13
	b	.L242
.L313:
	.align	2
.L312:
	.word	QSpi1Handle
	.word	.LC148
	.word	PageBuffer
	.word	.LC141
	.word	.LC142
	.word	.LC143
	.word	.LC149
	.word	.LC150
	.word	.LC151
	.word	.LC144
	.word	.LC152
	.word	.LC153
	.word	.LC154
	.word	.LC155
	.word	.LC156
	.word	.LC157
	.word	.LC158
	.word	.LC159
	.word	.LC160
	.word	.LC161
.L233:
	.loc 1 1518 13
	ldr	r0, .L314
	bl	printf
	.loc 1 1519 19
	ldr	r0, .L314+4
	bl	QSpi_EnterDeepPowerDown
	str	r0, [sp, #36]
	.loc 1 1520 13
	ldr	r3, [sp, #36]
	cmp	r3, #0
	beq	.L292
	.loc 1 1520 13 is_stmt 0 discriminator 1
	ldr	r3, .L314+8
	b	.L293
.L292:
	.loc 1 1520 13 discriminator 2
	ldr	r3, .L314+12
.L293:
	.loc 1 1520 13 discriminator 4
	mov	r1, r3
	ldr	r0, .L314+16
	bl	printf
	.loc 1 1521 13 is_stmt 1 discriminator 4
	b	.L242
.L232:
	.loc 1 1523 13
	ldr	r0, .L314+20
	bl	printf
	.loc 1 1524 19
	ldr	r0, .L314+4
	bl	QSpi_LeaveDeepPowerDown
	str	r0, [sp, #36]
	.loc 1 1525 13
	ldr	r3, [sp, #36]
	cmp	r3, #0
	beq	.L294
	.loc 1 1525 13 is_stmt 0 discriminator 1
	ldr	r3, .L314+8
	b	.L295
.L294:
	.loc 1 1525 13 discriminator 2
	ldr	r3, .L314+12
.L295:
	.loc 1 1525 13 discriminator 4
	mov	r1, r3
	ldr	r0, .L314+16
	bl	printf
	.loc 1 1526 13 is_stmt 1 discriminator 4
	b	.L242
.L231:
	.loc 1 1529 18
	bl	CMD_argc
	mov	r3, r0
	.loc 1 1529 16
	cmp	r3, #0
	bne	.L296
	.loc 1 1530 15
	ldr	r0, .L314+24
	bl	printf
	.loc 1 1531 22
	movs	r3, #0
	b	.L309
.L296:
	.loc 1 1533 13
	add	r2, sp, #20
	add	r3, sp, #24
	mov	r1, r2
	mov	r0, r3
	bl	CMD_get_one_word
	.loc 1 1534 20
	ldr	r3, [sp, #24]
	ldr	r2, [sp, #20]
	mov	r1, r2
	mov	r0, r3
	bl	CMD_to_number
	str	r0, [sp, #48]
	.loc 1 1535 13
	add	r2, sp, #20
	add	r3, sp, #24
	mov	r1, r2
	mov	r0, r3
	bl	CMD_get_one_word
	.loc 1 1536 19
	ldr	r3, [sp, #24]
	ldr	r2, [sp, #20]
	mov	r1, r2
	mov	r0, r3
	bl	CMD_to_number
	str	r0, [sp, #52]
	.loc 1 1537 16
	ldr	r3, [sp, #52]
	cmp	r3, #10240
	bls	.L297
	.loc 1 1538 17
	mov	r1, #10240
	ldr	r0, .L314+28
	bl	printf
	.loc 1 1539 24
	movs	r3, #0
	b	.L309
.L297:
	.loc 1 1541 20
	movs	r3, #0
	str	r3, [sp, #44]
	.loc 1 1541 13
	b	.L298
.L299:
	.loc 1 1542 29 discriminator 3
	ldr	r3, [sp, #44]
	uxtb	r1, r3
	ldr	r2, .L314+32
	ldr	r3, [sp, #44]
	add	r3, r3, r2
	mov	r2, r1
	strb	r2, [r3]
	.loc 1 1541 34 discriminator 3
	ldr	r3, [sp, #44]
	adds	r3, r3, #1
	str	r3, [sp, #44]
.L298:
	.loc 1 1541 13 discriminator 1
	ldr	r2, [sp, #44]
	ldr	r3, [sp, #52]
	cmp	r2, r3
	bls	.L299
	.loc 1 1544 13
	ldr	r2, [sp, #48]
	ldr	r1, [sp, #52]
	ldr	r0, .L314+36
	bl	printf
	.loc 1 1546 16
	ldr	r3, [sp, #4]
	cmp	r3, #11
	bne	.L300
	.loc 1 1547 23
	ldr	r3, [sp, #52]
	ldr	r2, [sp, #48]
	ldr	r1, .L314+32
	ldr	r0, .L314+4
	bl	QSpi_WriteDMA
	str	r0, [sp, #36]
	b	.L301
.L300:
	.loc 1 1549 23
	ldr	r3, [sp, #52]
	ldr	r2, [sp, #48]
	ldr	r1, .L314+32
	ldr	r0, .L314+4
	bl	QSpi_WriteIT
	str	r0, [sp, #36]
.L301:
	.loc 1 1550 13
	ldr	r3, [sp, #36]
	cmp	r3, #0
	beq	.L302
	.loc 1 1550 13 is_stmt 0 discriminator 1
	ldr	r3, .L314+8
	b	.L303
.L302:
	.loc 1 1550 13 discriminator 2
	ldr	r3, .L314+12
.L303:
	.loc 1 1550 13 discriminator 4
	mov	r1, r3
	ldr	r0, .L314+16
	bl	printf
	.loc 1 1552 13 is_stmt 1 discriminator 4
	bl	ProfilerGetTS
	mov	r3, r0
	mov	r1, r3
	ldr	r0, .L314+40
	bl	printf
	ldr	r0, .L314+44
	bl	printf
	.loc 1 1553 13 discriminator 4
	b	.L242
.L230:
	.loc 1 1555 18
	bl	CMD_argc
	mov	r3, r0
	.loc 1 1555 16
	cmp	r3, #0
	bne	.L304
	.loc 1 1556 15
	ldr	r0, .L314+48
	bl	printf
	.loc 1 1557 22
	movs	r3, #0
	b	.L309
.L304:
	.loc 1 1559 13
	add	r2, sp, #20
	add	r3, sp, #24
	mov	r1, r2
	mov	r0, r3
	bl	CMD_get_one_word
	.loc 1 1560 20
	ldr	r3, [sp, #24]
	ldr	r2, [sp, #20]
	mov	r1, r2
	mov	r0, r3
	bl	CMD_to_number
	str	r0, [sp, #48]
	.loc 1 1561 13
	ldr	r1, [sp, #48]
	ldr	r0, .L314+52
	bl	printf
	.loc 1 1563 23
	ldr	r3, [sp, #48]
	mov	r2, #1000
	mul	r3, r2, r3
	mov	r1, r3
	ldr	r0, .L314+4
	bl	Qspi_SetSpeed
	str	r0, [sp, #36]
	.loc 1 1564 13
	ldr	r3, [sp, #36]
	cmp	r3, #0
	beq	.L305
	.loc 1 1564 13 is_stmt 0 discriminator 1
	ldr	r3, .L314+8
	b	.L306
.L305:
	.loc 1 1564 13 discriminator 2
	ldr	r3, .L314+12
.L306:
	.loc 1 1564 13 discriminator 4
	mov	r1, r3
	ldr	r0, .L314+16
	bl	printf
	.loc 1 1565 13 is_stmt 1 discriminator 4
	b	.L242
.L228:
	.loc 1 1567 13
	ldr	r0, .L314+56
	bl	printf
	.loc 1 1568 19
	ldr	r0, .L314+4
	bl	QSpi_ResetMemory
	str	r0, [sp, #36]
	.loc 1 1569 13
	ldr	r3, [sp, #36]
	cmp	r3, #0
	beq	.L307
	.loc 1 1569 13 is_stmt 0 discriminator 1
	ldr	r3, .L314+8
	b	.L308
.L307:
	.loc 1 1569 13 discriminator 2
	ldr	r3, .L314+12
.L308:
	.loc 1 1569 13 discriminator 4
	mov	r1, r3
	ldr	r0, .L314+16
	bl	printf
	.loc 1 1570 13 is_stmt 1 discriminator 4
	b	.L242
.L227:
	.loc 1 1572 11
	ldr	r0, .L314+60
	bl	puts
.L242:
	.loc 1 1575 14
	movs	r3, #1
.L309:
	.loc 1 1576 5 discriminator 1
	mov	r0, r3
	add	sp, sp, #60
.LCFI74:
	@ sp needed
	ldr	pc, [sp], #4
.L315:
	.align	2
.L314:
	.word	.LC162
	.word	QSpi1Handle
	.word	.LC141
	.word	.LC142
	.word	.LC143
	.word	.LC163
	.word	.LC164
	.word	.LC165
	.word	PageBuffer
	.word	.LC166
	.word	.LC129
	.word	.LC167
	.word	.LC168
	.word	.LC169
	.word	.LC170
	.word	.LC171
.LFE361:
	.size	QSPI_Menu, .-QSPI_Menu
	.section .rodata
	.align	2
.LC172:
	.ascii	"QuadSpi\000"
	.section	.text.pmtQSPI,"ax",%progbits
	.align	1
	.syntax unified
	.thumb
	.thumb_func
	.fpu fpv5-d16
	.type	pmtQSPI, %function
pmtQSPI:
.LFB362:
	.loc 1 1579 5
	@ args = 0, pretend = 0, frame = 0
	@ frame_needed = 0, uses_anonymous_args = 0
	@ link register save eliminated.
	.loc 1 1580 14
	ldr	r3, .L318
	.loc 1 1581 5
	mov	r0, r3
	bx	lr
.L319:
	.align	2
.L318:
	.word	.LC172
.LFE362:
	.size	pmtQSPI, .-pmtQSPI
	.section .rodata
	.align	2
.LC173:
	.ascii	"Geometry\000"
	.align	2
.LC174:
	.ascii	"Get Qspi Flash geometry\000"
	.align	2
.LC175:
	.ascii	"Erase <sector#> [<cnt>]\000"
	.align	2
.LC176:
	.ascii	"Erase Sector# and <cnt> following sectors\000"
	.align	2
.LC177:
	.ascii	"Write <page#> [<cnt>]\000"
	.align	2
.LC178:
	.ascii	"Write page #num and <cnt> following pages\000"
	.align	2
.LC179:
	.ascii	"Compare <page#> [<cnt>]\000"
	.align	2
.LC180:
	.ascii	"Read page #num and <cnt> following pages\000"
	.align	2
.LC181:
	.ascii	"Dump <page#> [<cnt>]\000"
	.align	2
.LC182:
	.ascii	"Memory Mapped\000"
	.align	2
.LC183:
	.ascii	"Enable Memory mapped mode\000"
	.align	2
.LC184:
	.ascii	"Abort\000"
	.align	2
.LC185:
	.ascii	"Abort current operation\000"
	.align	2
.LC186:
	.ascii	"Flash status\000"
	.align	2
.LC187:
	.ascii	"Dump flash chip status\000"
	.align	2
.LC188:
	.ascii	"Power Down\000"
	.align	2
.LC189:
	.ascii	"Enable Power down mode\000"
	.align	2
.LC190:
	.ascii	"End Power Down\000"
	.align	2
.LC191:
	.ascii	"Exit Power down mode\000"
	.align	2
.LC192:
	.ascii	"Write much IT\000"
	.align	2
.LC193:
	.ascii	"Write many bytes IRQ mode\000"
	.align	2
.LC194:
	.ascii	"Write much DMA\000"
	.align	2
.LC195:
	.ascii	"Write many bytes DMA mode\000"
	.align	2
.LC196:
	.ascii	"Clk speed <n>\000"
	.align	2
.LC197:
	.ascii	"Set QSPI clock speed to <n> kHz\000"
	.align	2
.LC198:
	.ascii	"Reset memory\000"
	.align	2
.LC199:
	.ascii	"Reset QSPI Memory\000"
	.section	.rodata.cmdQSPI,"a"
	.align	2
	.type	cmdQSPI, %object
	.size	cmdQSPI, 280
cmdQSPI:
	.word	.LC173
	.byte	0
	.space	3
	.word	QSPI_Menu
	.word	0
	.word	.LC174
	.word	.LC175
	.byte	0
	.space	3
	.word	QSPI_Menu
	.word	1
	.word	.LC176
	.word	.LC177
	.byte	0
	.space	3
	.word	QSPI_Menu
	.word	2
	.word	.LC178
	.word	.LC179
	.byte	0
	.space	3
	.word	QSPI_Menu
	.word	3
	.word	.LC180
	.word	.LC181
	.byte	0
	.space	3
	.word	QSPI_Menu
	.word	4
	.word	.LC180
	.word	.LC182
	.byte	0
	.space	3
	.word	QSPI_Menu
	.word	5
	.word	.LC183
	.word	.LC184
	.byte	0
	.space	3
	.word	QSPI_Menu
	.word	6
	.word	.LC185
	.word	.LC186
	.byte	0
	.space	3
	.word	QSPI_Menu
	.word	7
	.word	.LC187
	.word	.LC188
	.byte	0
	.space	3
	.word	QSPI_Menu
	.word	8
	.word	.LC189
	.word	.LC190
	.byte	0
	.space	3
	.word	QSPI_Menu
	.word	9
	.word	.LC191
	.word	.LC192
	.byte	0
	.space	3
	.word	QSPI_Menu
	.word	10
	.word	.LC193
	.word	.LC194
	.byte	0
	.space	3
	.word	QSPI_Menu
	.word	11
	.word	.LC195
	.word	.LC196
	.byte	0
	.space	3
	.word	QSPI_Menu
	.word	12
	.word	.LC197
	.word	.LC198
	.byte	0
	.space	3
	.word	QSPI_Menu
	.word	13
	.word	.LC199
	.global	mdlQSPI
	.section	.rodata.mdlQSPI,"a"
	.align	2
	.type	mdlQSPI, %object
	.size	mdlQSPI, 12
mdlQSPI:
	.word	pmtQSPI
	.word	cmdQSPI
	.word	14
	.section .rodata
	.align	2
.LC200:
	.ascii	"Set\000"
	.align	2
.LC201:
	.ascii	"Failed to set\000"
	.align	2
.LC202:
	.ascii	"%s No. %d to 0x%02x\012\000"
	.section	.text.Settings,"ax",%progbits
	.align	1
	.global	Settings
	.syntax unified
	.thumb
	.thumb_func
	.fpu fpv5-d16
	.type	Settings, %function
Settings:
.LFB363:
	.loc 1 1783 1
	@ args = 0, pretend = 0, frame = 40
	@ frame_needed = 0, uses_anonymous_args = 0
	push	{lr}
.LCFI75:
	sub	sp, sp, #44
.LCFI76:
	str	r0, [sp, #12]
	str	r1, [sp, #8]
	str	r2, [sp, #4]
	.loc 1 1787 21
	bl	CMD_argc
	mov	r3, r0
	.loc 1 1787 12
	str	r3, [sp, #36]
	.loc 1 1792 6
	ldr	r3, [sp, #36]
	cmp	r3, #1
	bls	.L321
	.loc 1 1793 13
	b	.L322
.L325:
	.loc 1 1794 9
	add	r2, sp, #20
	add	r3, sp, #24
	mov	r1, r2
	mov	r0, r3
	bl	CMD_get_one_word
	.loc 1 1795 15
	ldr	r3, [sp, #24]
	ldr	r2, [sp, #20]
	mov	r1, r2
	mov	r0, r3
	bl	CMD_to_number
	mov	r3, r0
	.loc 1 1795 13
	strb	r3, [sp, #35]
	.loc 1 1796 9
	add	r2, sp, #20
	add	r3, sp, #24
	mov	r1, r2
	mov	r0, r3
	bl	CMD_get_one_word
	.loc 1 1797 15
	ldr	r3, [sp, #24]
	ldr	r2, [sp, #20]
	mov	r1, r2
	mov	r0, r3
	bl	CMD_to_number
	mov	r3, r0
	.loc 1 1797 13
	strb	r3, [sp, #34]
	.loc 1 1798 18
	ldrb	r2, [sp, #34]	@ zero_extendqisi2
	ldrb	r3, [sp, #35]	@ zero_extendqisi2
	mov	r1, r2
	mov	r0, r3
	bl	Config_SetVal
	str	r0, [sp, #28]
	.loc 1 1799 9
	ldr	r3, [sp, #28]
	cmp	r3, #0
	beq	.L323
	.loc 1 1799 9 is_stmt 0 discriminator 1
	ldr	r1, .L327
	b	.L324
.L323:
	.loc 1 1799 9 discriminator 2
	ldr	r1, .L327+4
.L324:
	.loc 1 1799 9 discriminator 4
	ldrb	r2, [sp, #35]	@ zero_extendqisi2
	ldrb	r3, [sp, #34]	@ zero_extendqisi2
	ldr	r0, .L327+8
	bl	printf
	.loc 1 1800 16 is_stmt 1 discriminator 4
	ldr	r3, [sp, #36]
	subs	r3, r3, #2
	str	r3, [sp, #36]
.L322:
	.loc 1 1793 13
	ldr	r3, [sp, #36]
	cmp	r3, #1
	bhi	.L325
.L321:
	.loc 1 1805 3
	bl	Config_Dump
	.loc 1 1807 10
	movs	r3, #1
	.loc 1 1808 1
	mov	r0, r3
	add	sp, sp, #44
.LCFI77:
	@ sp needed
	ldr	pc, [sp], #4
.L328:
	.align	2
.L327:
	.word	.LC200
	.word	.LC201
	.word	.LC202
.LFE363:
	.size	Settings, .-Settings
	.section .rodata
	.align	2
.LC203:
	.ascii	"Usage: 'Level [<n>] - Show/Set Debuglevel\012\000"
	.align	2
.LC204:
	.ascii	"Debuglevel=%d\012\000"
	.align	2
.LC205:
	.ascii	"MainMenu: command not implemented\000"
	.section	.text.MainMenu,"ax",%progbits
	.align	1
	.syntax unified
	.thumb
	.thumb_func
	.fpu fpv5-d16
	.type	MainMenu, %function
MainMenu:
.LFB364:
	.loc 1 1815 1
	@ args = 0, pretend = 0, frame = 24
	@ frame_needed = 0, uses_anonymous_args = 0
	push	{lr}
.LCFI78:
	sub	sp, sp, #28
.LCFI79:
	str	r0, [sp, #12]
	str	r1, [sp, #8]
	str	r2, [sp, #4]
	.loc 1 1820 12
	ldr	r3, [sp, #4]
	.loc 1 1820 5
	cmp	r3, #0
	bne	.L330
	.loc 1 1823 18
	bl	CMD_argc
	mov	r3, r0
	.loc 1 1823 16
	cmp	r3, #0
	bne	.L331
	.loc 1 1824 15
	ldr	r0, .L336
	bl	printf
	b	.L332
.L331:
	.loc 1 1826 17
	add	r2, sp, #16
	add	r3, sp, #20
	mov	r1, r2
	mov	r0, r3
	bl	CMD_get_one_word
	.loc 1 1827 30
	ldr	r3, [sp, #20]
	ldr	r2, [sp, #16]
	mov	r1, r2
	mov	r0, r3
	bl	CMD_to_number
	mov	r3, r0
	.loc 1 1827 28
	ldr	r2, .L336+4
	str	r3, [r2]
.L332:
	.loc 1 1829 13
	ldr	r3, .L336+4
	ldr	r3, [r3]
	mov	r1, r3
	ldr	r0, .L336+8
	bl	printf
	.loc 1 1830 13
	nop
	.loc 1 1836 12
	movs	r3, #1
	b	.L335
.L330:
	.loc 1 1833 13
	ldr	r0, .L336+12
	bl	puts
	.loc 1 1834 20
	movs	r3, #0
.L335:
	.loc 1 1837 1 discriminator 1
	mov	r0, r3
	add	sp, sp, #28
.LCFI80:
	@ sp needed
	ldr	pc, [sp], #4
.L337:
	.align	2
.L336:
	.word	.LC203
	.word	debuglevel
	.word	.LC204
	.word	.LC205
.LFE364:
	.size	MainMenu, .-MainMenu
	.section	.text.pmtBasic,"ax",%progbits
	.align	1
	.syntax unified
	.thumb
	.thumb_func
	.fpu fpv5-d16
	.type	pmtBasic, %function
pmtBasic:
.LFB365:
	.loc 1 1839 1
	@ args = 0, pretend = 0, frame = 0
	@ frame_needed = 0, uses_anonymous_args = 0
	@ link register save eliminated.
	.loc 1 1840 10
	ldr	r3, .L340
	.loc 1 1841 1
	mov	r0, r3
	bx	lr
.L341:
	.align	2
.L340:
	.word	.LC158
.LFE365:
	.size	pmtBasic, .-pmtBasic
	.section .rodata
	.align	2
.LC206:
	.ascii	"Settings\000"
	.align	2
.LC207:
	.ascii	"Persistent settings\000"
	.align	2
.LC208:
	.ascii	"Level\000"
	.align	2
.LC209:
	.ascii	"Set Debuglevel\000"
	.align	2
.LC210:
	.ascii	"UID\000"
	.align	2
.LC211:
	.ascii	"Print Hardware UID\000"
	.align	2
.LC212:
	.ascii	"Clock&Pwr\000"
	.align	2
.LC213:
	.ascii	"Clock & Power Config submenu\000"
	.align	2
.LC214:
	.ascii	"Peripheral devices submenu\000"
	.align	2
.LC215:
	.ascii	"ADC submenu\000"
	.align	2
.LC216:
	.ascii	"Profile\000"
	.align	2
.LC217:
	.ascii	"Dump profiling info\000"
	.align	2
.LC218:
	.ascii	"Test&System\000"
	.align	2
.LC219:
	.ascii	"Test & System submenu\000"
	.align	2
.LC220:
	.ascii	"QSpi test\000"
	.align	2
.LC221:
	.ascii	"Test QuadSpi functions\000"
	.section	.rodata.cmdBasic,"a"
	.align	2
	.type	cmdBasic, %object
	.size	cmdBasic, 180
cmdBasic:
	.word	.LC206
	.byte	0
	.space	3
	.word	Settings
	.word	0
	.word	.LC207
	.word	.LC208
	.byte	0
	.space	3
	.word	MainMenu
	.word	0
	.word	.LC209
	.word	.LC210
	.byte	0
	.space	3
	.word	HW_DumpID
	.word	0
	.word	.LC211
	.word	.LC212
	.byte	1
	.space	3
	.word	mdlClkCfg
	.word	0
	.word	.LC213
	.word	.LC33
	.byte	1
	.space	3
	.word	mdlDevices
	.word	0
	.word	.LC214
	.word	.LC115
	.byte	1
	.space	3
	.word	mdlADC
	.word	0
	.word	.LC215
	.word	.LC216
	.byte	0
	.space	3
	.word	ProfilerDump
	.word	0
	.word	.LC217
	.word	.LC218
	.byte	1
	.space	3
	.word	mdlTest
	.word	0
	.word	.LC219
	.word	.LC220
	.byte	1
	.space	3
	.word	mdlQSPI
	.word	0
	.word	.LC221
	.global	mdlBasic
	.section	.rodata.mdlBasic,"a"
	.align	2
	.type	mdlBasic, %object
	.size	mdlBasic, 12
mdlBasic:
	.word	pmtBasic
	.word	cmdBasic
	.word	9
	.section	.debug_frame,"",%progbits
.Lframe0:
	.4byte	.LECIE0-.LSCIE0
.LSCIE0:
	.4byte	0xffffffff
	.byte	0x3
	.ascii	"\000"
	.uleb128 0x1
	.sleb128 -4
	.uleb128 0xe
	.byte	0xc
	.uleb128 0xd
	.uleb128 0
	.align	2
.LECIE0:
.LSFDE0:
	.4byte	.LEFDE0-.LASFDE0
.LASFDE0:
	.4byte	.Lframe0
	.4byte	.LFB332
	.4byte	.LFE332-.LFB332
	.byte	0x4
	.4byte	.LCFI0-.LFB332
	.byte	0xe
	.uleb128 0x4
	.byte	0x8e
	.uleb128 0x1
	.byte	0x4
	.4byte	.LCFI1-.LCFI0
	.byte	0xe
	.uleb128 0x28
	.byte	0x4
	.4byte	.LCFI2-.LCFI1
	.byte	0xe
	.uleb128 0x4
	.align	2
.LEFDE0:
.LSFDE2:
	.4byte	.LEFDE2-.LASFDE2
.LASFDE2:
	.4byte	.Lframe0
	.4byte	.LFB333
	.4byte	.LFE333-.LFB333
	.align	2
.LEFDE2:
.LSFDE4:
	.4byte	.LEFDE4-.LASFDE4
.LASFDE4:
	.4byte	.Lframe0
	.4byte	.LFB334
	.4byte	.LFE334-.LFB334
	.byte	0x4
	.4byte	.LCFI3-.LFB334
	.byte	0xe
	.uleb128 0x4
	.byte	0x8e
	.uleb128 0x1
	.byte	0x4
	.4byte	.LCFI4-.LCFI3
	.byte	0xe
	.uleb128 0x40
	.byte	0x4
	.4byte	.LCFI5-.LCFI4
	.byte	0xe
	.uleb128 0x4
	.align	2
.LEFDE4:
.LSFDE6:
	.4byte	.LEFDE6-.LASFDE6
.LASFDE6:
	.4byte	.Lframe0
	.4byte	.LFB335
	.4byte	.LFE335-.LFB335
	.byte	0x4
	.4byte	.LCFI6-.LFB335
	.byte	0xe
	.uleb128 0x4
	.byte	0x8e
	.uleb128 0x1
	.byte	0x4
	.4byte	.LCFI7-.LCFI6
	.byte	0xe
	.uleb128 0x28
	.byte	0x4
	.4byte	.LCFI8-.LCFI7
	.byte	0xe
	.uleb128 0x4
	.align	2
.LEFDE6:
.LSFDE8:
	.4byte	.LEFDE8-.LASFDE8
.LASFDE8:
	.4byte	.Lframe0
	.4byte	.LFB336
	.4byte	.LFE336-.LFB336
	.byte	0x4
	.4byte	.LCFI9-.LFB336
	.byte	0xe
	.uleb128 0x4
	.byte	0x8e
	.uleb128 0x1
	.byte	0x4
	.4byte	.LCFI10-.LCFI9
	.byte	0xe
	.uleb128 0x28
	.byte	0x4
	.4byte	.LCFI11-.LCFI10
	.byte	0xe
	.uleb128 0x4
	.align	2
.LEFDE8:
.LSFDE10:
	.4byte	.LEFDE10-.LASFDE10
.LASFDE10:
	.4byte	.Lframe0
	.4byte	.LFB337
	.4byte	.LFE337-.LFB337
	.byte	0x4
	.4byte	.LCFI12-.LFB337
	.byte	0xe
	.uleb128 0x4
	.byte	0x8e
	.uleb128 0x1
	.byte	0x4
	.4byte	.LCFI13-.LCFI12
	.byte	0xe
	.uleb128 0x28
	.byte	0x4
	.4byte	.LCFI14-.LCFI13
	.byte	0xe
	.uleb128 0x4
	.align	2
.LEFDE10:
.LSFDE12:
	.4byte	.LEFDE12-.LASFDE12
.LASFDE12:
	.4byte	.Lframe0
	.4byte	.LFB338
	.4byte	.LFE338-.LFB338
	.align	2
.LEFDE12:
.LSFDE14:
	.4byte	.LEFDE14-.LASFDE14
.LASFDE14:
	.4byte	.Lframe0
	.4byte	.LFB339
	.4byte	.LFE339-.LFB339
	.byte	0x4
	.4byte	.LCFI15-.LFB339
	.byte	0xe
	.uleb128 0x4
	.byte	0x8e
	.uleb128 0x1
	.byte	0x4
	.4byte	.LCFI16-.LCFI15
	.byte	0xe
	.uleb128 0x20
	.byte	0x4
	.4byte	.LCFI17-.LCFI16
	.byte	0xe
	.uleb128 0x4
	.align	2
.LEFDE14:
.LSFDE16:
	.4byte	.LEFDE16-.LASFDE16
.LASFDE16:
	.4byte	.Lframe0
	.4byte	.LFB340
	.4byte	.LFE340-.LFB340
	.byte	0x4
	.4byte	.LCFI18-.LFB340
	.byte	0xe
	.uleb128 0x4
	.byte	0x8e
	.uleb128 0x1
	.byte	0x4
	.4byte	.LCFI19-.LCFI18
	.byte	0xe
	.uleb128 0x28
	.byte	0x4
	.4byte	.LCFI20-.LCFI19
	.byte	0xe
	.uleb128 0x4
	.align	2
.LEFDE16:
.LSFDE18:
	.4byte	.LEFDE18-.LASFDE18
.LASFDE18:
	.4byte	.Lframe0
	.4byte	.LFB341
	.4byte	.LFE341-.LFB341
	.byte	0x4
	.4byte	.LCFI21-.LFB341
	.byte	0xe
	.uleb128 0x8
	.byte	0x4
	.4byte	.LCFI22-.LCFI21
	.byte	0xe
	.uleb128 0
	.align	2
.LEFDE18:
.LSFDE20:
	.4byte	.LEFDE20-.LASFDE20
.LASFDE20:
	.4byte	.Lframe0
	.4byte	.LFB342
	.4byte	.LFE342-.LFB342
	.byte	0x4
	.4byte	.LCFI23-.LFB342
	.byte	0xe
	.uleb128 0x4
	.byte	0x8e
	.uleb128 0x1
	.byte	0x4
	.4byte	.LCFI24-.LCFI23
	.byte	0xe
	.uleb128 0x28
	.byte	0x4
	.4byte	.LCFI25-.LCFI24
	.byte	0xe
	.uleb128 0x4
	.align	2
.LEFDE20:
.LSFDE22:
	.4byte	.LEFDE22-.LASFDE22
.LASFDE22:
	.4byte	.Lframe0
	.4byte	.LFB343
	.4byte	.LFE343-.LFB343
	.byte	0x4
	.4byte	.LCFI26-.LFB343
	.byte	0xe
	.uleb128 0x4
	.byte	0x8e
	.uleb128 0x1
	.byte	0x4
	.4byte	.LCFI27-.LCFI26
	.byte	0xe
	.uleb128 0x30
	.byte	0x4
	.4byte	.LCFI28-.LCFI27
	.byte	0xe
	.uleb128 0x4
	.align	2
.LEFDE22:
.LSFDE24:
	.4byte	.LEFDE24-.LASFDE24
.LASFDE24:
	.4byte	.Lframe0
	.4byte	.LFB344
	.4byte	.LFE344-.LFB344
	.byte	0x4
	.4byte	.LCFI29-.LFB344
	.byte	0xe
	.uleb128 0x4
	.byte	0x8e
	.uleb128 0x1
	.byte	0x4
	.4byte	.LCFI30-.LCFI29
	.byte	0xe
	.uleb128 0x18
	.byte	0x4
	.4byte	.LCFI31-.LCFI30
	.byte	0xe
	.uleb128 0x4
	.align	2
.LEFDE24:
.LSFDE26:
	.4byte	.LEFDE26-.LASFDE26
.LASFDE26:
	.4byte	.Lframe0
	.4byte	.LFB345
	.4byte	.LFE345-.LFB345
	.byte	0x4
	.4byte	.LCFI32-.LFB345
	.byte	0xe
	.uleb128 0x4
	.byte	0x8e
	.uleb128 0x1
	.byte	0x4
	.4byte	.LCFI33-.LCFI32
	.byte	0xe
	.uleb128 0x10
	.byte	0x4
	.4byte	.LCFI34-.LCFI33
	.byte	0xe
	.uleb128 0x4
	.align	2
.LEFDE26:
.LSFDE28:
	.4byte	.LEFDE28-.LASFDE28
.LASFDE28:
	.4byte	.Lframe0
	.4byte	.LFB346
	.4byte	.LFE346-.LFB346
	.byte	0x4
	.4byte	.LCFI35-.LFB346
	.byte	0xe
	.uleb128 0x4
	.byte	0x8e
	.uleb128 0x1
	.byte	0x4
	.4byte	.LCFI36-.LCFI35
	.byte	0xe
	.uleb128 0x38
	.byte	0x4
	.4byte	.LCFI37-.LCFI36
	.byte	0xe
	.uleb128 0x4
	.align	2
.LEFDE28:
.LSFDE30:
	.4byte	.LEFDE30-.LASFDE30
.LASFDE30:
	.4byte	.Lframe0
	.4byte	.LFB347
	.4byte	.LFE347-.LFB347
	.byte	0x4
	.4byte	.LCFI38-.LFB347
	.byte	0xe
	.uleb128 0x4
	.byte	0x8e
	.uleb128 0x1
	.byte	0x4
	.4byte	.LCFI39-.LCFI38
	.byte	0xe
	.uleb128 0x28
	.byte	0x4
	.4byte	.LCFI40-.LCFI39
	.byte	0xe
	.uleb128 0x4
	.align	2
.LEFDE30:
.LSFDE32:
	.4byte	.LEFDE32-.LASFDE32
.LASFDE32:
	.4byte	.Lframe0
	.4byte	.LFB348
	.4byte	.LFE348-.LFB348
	.byte	0x4
	.4byte	.LCFI41-.LFB348
	.byte	0xe
	.uleb128 0x8
	.byte	0x83
	.uleb128 0x2
	.byte	0x8e
	.uleb128 0x1
	.align	2
.LEFDE32:
.LSFDE34:
	.4byte	.LEFDE34-.LASFDE34
.LASFDE34:
	.4byte	.Lframe0
	.4byte	.LFB349
	.4byte	.LFE349-.LFB349
	.byte	0x4
	.4byte	.LCFI42-.LFB349
	.byte	0xe
	.uleb128 0x4
	.byte	0x8e
	.uleb128 0x1
	.byte	0x4
	.4byte	.LCFI43-.LCFI42
	.byte	0xe
	.uleb128 0x10
	.byte	0x4
	.4byte	.LCFI44-.LCFI43
	.byte	0xe
	.uleb128 0x4
	.align	2
.LEFDE34:
.LSFDE36:
	.4byte	.LEFDE36-.LASFDE36
.LASFDE36:
	.4byte	.Lframe0
	.4byte	.LFB350
	.4byte	.LFE350-.LFB350
	.byte	0x4
	.4byte	.LCFI45-.LFB350
	.byte	0xe
	.uleb128 0x4
	.byte	0x8e
	.uleb128 0x1
	.byte	0x4
	.4byte	.LCFI46-.LCFI45
	.byte	0xe
	.uleb128 0x10
	.byte	0x4
	.4byte	.LCFI47-.LCFI46
	.byte	0xe
	.uleb128 0x4
	.align	2
.LEFDE36:
.LSFDE38:
	.4byte	.LEFDE38-.LASFDE38
.LASFDE38:
	.4byte	.Lframe0
	.4byte	.LFB351
	.4byte	.LFE351-.LFB351
	.byte	0x4
	.4byte	.LCFI48-.LFB351
	.byte	0xe
	.uleb128 0x4
	.byte	0x8e
	.uleb128 0x1
	.byte	0x4
	.4byte	.LCFI49-.LCFI48
	.byte	0xe
	.uleb128 0x28
	.byte	0x4
	.4byte	.LCFI50-.LCFI49
	.byte	0xe
	.uleb128 0x4
	.align	2
.LEFDE38:
.LSFDE40:
	.4byte	.LEFDE40-.LASFDE40
.LASFDE40:
	.4byte	.Lframe0
	.4byte	.LFB352
	.4byte	.LFE352-.LFB352
	.byte	0x4
	.4byte	.LCFI51-.LFB352
	.byte	0xe
	.uleb128 0x4
	.byte	0x8e
	.uleb128 0x1
	.byte	0x4
	.4byte	.LCFI52-.LCFI51
	.byte	0xe
	.uleb128 0x28
	.byte	0x4
	.4byte	.LCFI53-.LCFI52
	.byte	0xe
	.uleb128 0x4
	.align	2
.LEFDE40:
.LSFDE42:
	.4byte	.LEFDE42-.LASFDE42
.LASFDE42:
	.4byte	.Lframe0
	.4byte	.LFB353
	.4byte	.LFE353-.LFB353
	.byte	0x4
	.4byte	.LCFI54-.LFB353
	.byte	0xe
	.uleb128 0x4
	.byte	0x8e
	.uleb128 0x1
	.byte	0x4
	.4byte	.LCFI55-.LCFI54
	.byte	0xe
	.uleb128 0x18
	.byte	0x4
	.4byte	.LCFI56-.LCFI55
	.byte	0xe
	.uleb128 0x4
	.align	2
.LEFDE42:
.LSFDE44:
	.4byte	.LEFDE44-.LASFDE44
.LASFDE44:
	.4byte	.Lframe0
	.4byte	.LFB354
	.4byte	.LFE354-.LFB354
	.byte	0x4
	.4byte	.LCFI57-.LFB354
	.byte	0xe
	.uleb128 0x4
	.byte	0x8e
	.uleb128 0x1
	.byte	0x4
	.4byte	.LCFI58-.LCFI57
	.byte	0xe
	.uleb128 0x28
	.byte	0x4
	.4byte	.LCFI59-.LCFI58
	.byte	0xe
	.uleb128 0x4
	.align	2
.LEFDE44:
.LSFDE46:
	.4byte	.LEFDE46-.LASFDE46
.LASFDE46:
	.4byte	.Lframe0
	.4byte	.LFB355
	.4byte	.LFE355-.LFB355
	.align	2
.LEFDE46:
.LSFDE48:
	.4byte	.LEFDE48-.LASFDE48
.LASFDE48:
	.4byte	.Lframe0
	.4byte	.LFB356
	.4byte	.LFE356-.LFB356
	.byte	0x4
	.4byte	.LCFI60-.LFB356
	.byte	0xe
	.uleb128 0x4
	.byte	0x8e
	.uleb128 0x1
	.byte	0x4
	.4byte	.LCFI61-.LCFI60
	.byte	0xe
	.uleb128 0x28
	.byte	0x4
	.4byte	.LCFI62-.LCFI61
	.byte	0xe
	.uleb128 0x4
	.align	2
.LEFDE48:
.LSFDE50:
	.4byte	.LEFDE50-.LASFDE50
.LASFDE50:
	.4byte	.Lframe0
	.4byte	.LFB357
	.4byte	.LFE357-.LFB357
	.align	2
.LEFDE50:
.LSFDE52:
	.4byte	.LEFDE52-.LASFDE52
.LASFDE52:
	.4byte	.Lframe0
	.4byte	.LFB358
	.4byte	.LFE358-.LFB358
	.byte	0x4
	.4byte	.LCFI63-.LFB358
	.byte	0xe
	.uleb128 0x4
	.byte	0x8e
	.uleb128 0x1
	.byte	0x4
	.4byte	.LCFI64-.LCFI63
	.byte	0xe
	.uleb128 0x10
	.byte	0x4
	.4byte	.LCFI65-.LCFI64
	.byte	0xe
	.uleb128 0x4
	.align	2
.LEFDE52:
.LSFDE54:
	.4byte	.LEFDE54-.LASFDE54
.LASFDE54:
	.4byte	.Lframe0
	.4byte	.LFB359
	.4byte	.LFE359-.LFB359
	.byte	0x4
	.4byte	.LCFI66-.LFB359
	.byte	0xe
	.uleb128 0x4
	.byte	0x8e
	.uleb128 0x1
	.byte	0x4
	.4byte	.LCFI67-.LCFI66
	.byte	0xe
	.uleb128 0x10
	.byte	0x4
	.4byte	.LCFI68-.LCFI67
	.byte	0xe
	.uleb128 0x4
	.align	2
.LEFDE54:
.LSFDE56:
	.4byte	.LEFDE56-.LASFDE56
.LASFDE56:
	.4byte	.Lframe0
	.4byte	.LFB360
	.4byte	.LFE360-.LFB360
	.byte	0x4
	.4byte	.LCFI69-.LFB360
	.byte	0xe
	.uleb128 0x4
	.byte	0x8e
	.uleb128 0x1
	.byte	0x4
	.4byte	.LCFI70-.LCFI69
	.byte	0xe
	.uleb128 0x10
	.byte	0x4
	.4byte	.LCFI71-.LCFI70
	.byte	0xe
	.uleb128 0x4
	.align	2
.LEFDE56:
.LSFDE58:
	.4byte	.LEFDE58-.LASFDE58
.LASFDE58:
	.4byte	.Lframe0
	.4byte	.LFB361
	.4byte	.LFE361-.LFB361
	.byte	0x4
	.4byte	.LCFI72-.LFB361
	.byte	0xe
	.uleb128 0x4
	.byte	0x8e
	.uleb128 0x1
	.byte	0x4
	.4byte	.LCFI73-.LCFI72
	.byte	0xe
	.uleb128 0x40
	.byte	0x4
	.4byte	.LCFI74-.LCFI73
	.byte	0xe
	.uleb128 0x4
	.align	2
.LEFDE58:
.LSFDE60:
	.4byte	.LEFDE60-.LASFDE60
.LASFDE60:
	.4byte	.Lframe0
	.4byte	.LFB362
	.4byte	.LFE362-.LFB362
	.align	2
.LEFDE60:
.LSFDE62:
	.4byte	.LEFDE62-.LASFDE62
.LASFDE62:
	.4byte	.Lframe0
	.4byte	.LFB363
	.4byte	.LFE363-.LFB363
	.byte	0x4
	.4byte	.LCFI75-.LFB363
	.byte	0xe
	.uleb128 0x4
	.byte	0x8e
	.uleb128 0x1
	.byte	0x4
	.4byte	.LCFI76-.LCFI75
	.byte	0xe
	.uleb128 0x30
	.byte	0x4
	.4byte	.LCFI77-.LCFI76
	.byte	0xe
	.uleb128 0x4
	.align	2
.LEFDE62:
.LSFDE64:
	.4byte	.LEFDE64-.LASFDE64
.LASFDE64:
	.4byte	.Lframe0
	.4byte	.LFB364
	.4byte	.LFE364-.LFB364
	.byte	0x4
	.4byte	.LCFI78-.LFB364
	.byte	0xe
	.uleb128 0x4
	.byte	0x8e
	.uleb128 0x1
	.byte	0x4
	.4byte	.LCFI79-.LCFI78
	.byte	0xe
	.uleb128 0x20
	.byte	0x4
	.4byte	.LCFI80-.LCFI79
	.byte	0xe
	.uleb128 0x4
	.align	2
.LEFDE64:
.LSFDE66:
	.4byte	.LEFDE66-.LASFDE66
.LASFDE66:
	.4byte	.Lframe0
	.4byte	.LFB365
	.4byte	.LFE365-.LFB365
	.align	2
.LEFDE66:
	.text
.Letext0:
	.file 2 "E:/Programme/CrossWorks for ARM 4.7/include/__crossworks.h"
	.file 3 "E:/Programme/CrossWorks for ARM 4.7/include/string.h"
	.file 4 "E:/Programme/CrossWorks for ARM 4.7/include/stdint.h"
	.file 5 "E:/Programme/CrossWorks for ARM 4.7/include/stdio.h"
	.file 6 "./CM7/Inc/debug.h"
	.file 7 "./CM7/Inc/config/config.h"
	.file 8 "./CM7/Inc/error.h"
	.file 9 "../../common/inc/cmdline.h"
	.file 10 "../common_h7/inc/interpreters.h"
	.file 11 "E:/STM32H7/STM32Cube_FW_H7_V1.7.0/Drivers/CMSIS/Include/core_cm7.h"
	.file 12 "E:/STM32H7/STM32Cube_FW_H7_V1.7.0/Drivers/CMSIS/Device/ST/STM32H7xx/Include/system_stm32h7xx.h"
	.file 13 "E:/STM32H7/STM32Cube_FW_H7_V1.7.0/Drivers/CMSIS/Device/ST/STM32H7xx/Include/stm32h743xx.h"
	.file 14 "E:/STM32H7/STM32Cube_FW_H7_V1.7.0/Drivers/CMSIS/Device/ST/STM32H7xx/Include/stm32h7xx.h"
	.file 15 "E:/STM32H7/STM32Cube_FW_H7_V1.7.0/Drivers/STM32H7xx_HAL_Driver/Inc/stm32h7xx_hal_def.h"
	.file 16 "E:/STM32H7/STM32Cube_FW_H7_V1.7.0/Drivers/STM32H7xx_HAL_Driver/Inc/stm32h7xx_hal_dma.h"
	.file 17 "E:/STM32H7/STM32Cube_FW_H7_V1.7.0/Drivers/STM32H7xx_HAL_Driver/Inc/stm32h7xx_hal_mdma.h"
	.file 18 "E:/STM32H7/STM32Cube_FW_H7_V1.7.0/Drivers/STM32H7xx_HAL_Driver/Inc/stm32h7xx_hal_adc.h"
	.file 19 "E:/STM32H7/STM32Cube_FW_H7_V1.7.0/Drivers/STM32H7xx_HAL_Driver/Inc/stm32h7xx_hal_flash.h"
	.file 20 "E:/STM32H7/STM32Cube_FW_H7_V1.7.0/Drivers/STM32H7xx_HAL_Driver/Inc/stm32h7xx_hal_qspi.h"
	.file 21 "E:/STM32H7/STM32Cube_FW_H7_V1.7.0/Drivers/STM32H7xx_HAL_Driver/Inc/stm32h7xx_hal_tim.h"
	.file 22 "E:/STM32H7/STM32Cube_FW_H7_V1.7.0/Drivers/STM32H7xx_HAL_Driver/Inc/stm32h7xx_hal.h"
	.file 23 "../common_h7/inc/hardware.h"
	.file 24 "../../common/inc/dev/hw_device.h"
	.file 25 "../../common/inc/circbuf.h"
	.file 26 "../../common/inc/dev/uart_dev.h"
	.file 27 "../../common/inc/dev/timer_dev.h"
	.file 28 "./CM7/Inc/system/profiling.h"
	.file 29 "../../common/inc/debug_helper.h"
	.file 30 "../../common/inc/timer.h"
	.file 31 "../common_h7/inc/task/minitask.h"
	.file 32 "../../common/inc/rtc.h"
	.file 33 "../../common/inc/dev/io_dev.h"
	.file 34 "../../common/inc/dev/adc_dev.h"
	.file 35 "../../common/inc/dev/qspi_dev.h"
	.file 36 "./CM7/Inc/eeprom.h"